Archive member included to satisfy reference by file (symbol)

C:/devkitPro/libnds/lib\libdswifi9.a(dswifi9.o)
                              main.o (Wifi_InitDefault)
C:/devkitPro/libnds/lib\libdswifi9.a(sgIP_DHCP.o)
                              C:/devkitPro/libnds/lib\libdswifi9.a(dswifi9.o) (gethostid)
C:/devkitPro/libnds/lib\libdswifi9.a(sgIP_DNS.o)
                              C:/devkitPro/libnds/lib\libdswifi9.a(sgIP_DHCP.o) (sgIP_DNS_FindDNSRecord)
C:/devkitPro/libnds/lib\libdswifi9.a(sgIP_sockets.o)
                              main.o (socket)
C:/devkitPro/libnds/lib\libdswifi9.a(wfc.o)
                              C:/devkitPro/libnds/lib\libdswifi9.a(sgIP_DHCP.o) (sgIP_malloc)
C:/devkitPro/libnds/lib\libdswifi9.a(wpa.twl.o)
                              C:/devkitPro/libnds/lib\libdswifi9.a(wfc.o) (_wpaDerivePmk)
C:/devkitPro/libnds/lib\libdswifi9.a(sgIP.o)
                              C:/devkitPro/libnds/lib\libdswifi9.a(wfc.o) (sgIP_Init)
C:/devkitPro/libnds/lib\libdswifi9.a(sgIP_memblock.o)
                              C:/devkitPro/libnds/lib\libdswifi9.a(sgIP.o) (sgIP_memblock_Init)
C:/devkitPro/libnds/lib\libdswifi9.a(sgIP_Hub.o)
                              C:/devkitPro/libnds/lib\libdswifi9.a(sgIP.o) (sgIP_Hub_Init)
C:/devkitPro/libnds/lib\libdswifi9.a(sgIP_IP.o)
                              C:/devkitPro/libnds/lib\libdswifi9.a(sgIP.o) (sgIP_IP_ReceivePacket)
C:/devkitPro/libnds/lib\libdswifi9.a(sgIP_ARP.o)
                              C:/devkitPro/libnds/lib\libdswifi9.a(sgIP.o) (sgIP_ARP_Init)
C:/devkitPro/libnds/lib\libdswifi9.a(sgIP_ICMP.o)
                              C:/devkitPro/libnds/lib\libdswifi9.a(sgIP_IP.o) (sgIP_ICMP_ReceivePacket)
C:/devkitPro/libnds/lib\libdswifi9.a(sgIP_TCP.o)
                              C:/devkitPro/libnds/lib\libdswifi9.a(sgIP.o) (sgIP_TCP_Init)
C:/devkitPro/libnds/lib\libdswifi9.a(sgIP_UDP.o)
                              C:/devkitPro/libnds/lib\libdswifi9.a(sgIP.o) (sgIP_UDP_Init)
C:/devkitPro/libnds/lib\libnds9.a(console.o)
                              main.o (consoleDemoInit)
C:/devkitPro/libnds/lib\libnds9.a(keys.o)
                              main.o (scanKeys)
C:/devkitPro/libnds/lib\libnds9.a(default_font.bin.o)
                              C:/devkitPro/libnds/lib\libnds9.a(console.o) (default_font_bin)
C:/devkitPro/libnds/lib\libnds9.a(background.o)
                              C:/devkitPro/libnds/lib\libnds9.a(console.o) (bgState)
C:/devkitPro/libnds/lib\libnds9.a(trig.o)
                              C:/devkitPro/libnds/lib\libnds9.a(background.o) (sinLerp)
C:/devkitPro/calico/lib\libcalico_ds9.a(irq.o)
                              main.o (irqSet)
C:/devkitPro/calico/lib\libcalico_ds9.a(tick.o)
                              C:/devkitPro/libnds/lib\libdswifi9.a(wfc.o) (tickTaskStart)
C:/devkitPro/calico/lib\libcalico_ds9.a(thread_cold.o)
                              C:/devkitPro/libnds/lib\libdswifi9.a(wfc.o) (threadPrepare)
C:/devkitPro/calico/lib\libcalico_ds9.a(thread_hot.32.o)
                              C:/devkitPro/libnds/lib\libdswifi9.a(sgIP_DNS.o) (__sched_state)
C:/devkitPro/calico/lib\libcalico_ds9.a(mutex.o)
                              C:/devkitPro/libnds/lib\libdswifi9.a(sgIP_DNS.o) (mutexLock)
C:/devkitPro/calico/lib\libcalico_ds9.a(mailbox.o)
                              C:/devkitPro/libnds/lib\libdswifi9.a(wfc.o) (mailboxTrySend)
C:/devkitPro/calico/lib\libcalico_ds9.a(newlib_syscalls.o)
                              C:/devkitPro/libnds/lib\libdswifi9.a(sgIP_DHCP.o) (__errno)
C:/devkitPro/calico/lib\libcalico_ds9.a(arm-copy-fill.32.o)
                              C:/devkitPro/calico/lib\libcalico_ds9.a(thread_cold.o) (armCopyMem32)
C:/devkitPro/calico/lib\libcalico_ds9.a(arm-context.32.o)
                              C:/devkitPro/calico/lib\libcalico_ds9.a(thread_cold.o) (armContextSave)
C:/devkitPro/calico/lib\libcalico_ds9.a(arm-shims.32.o)
                              C:/devkitPro/calico/lib\libcalico_ds9.a(thread_cold.o) (armWaitForIrq)
C:/devkitPro/calico/lib\libcalico_ds9.a(startup.crt0.o)
                              C:/devkitPro/libnds/lib\libdswifi9.a(wfc.o) (g_isTwlMode)
C:/devkitPro/calico/lib\libcalico_ds9.a(utils.crt0.o)
                              C:/devkitPro/calico/lib\libcalico_ds9.a(startup.crt0.o) (crt0CopyMem32)
C:/devkitPro/calico/lib\libcalico_ds9.a(bios.o)
                              main.o (svcWaitByLoop)
C:/devkitPro/calico/lib\libcalico_ds9.a(bios.twl.o)
                              C:/devkitPro/libnds/lib\libdswifi9.a(wpa.twl.o) (svcSha1InitTWL)
C:/devkitPro/calico/lib\libcalico_ds9.a(pxi.o)
                              C:/devkitPro/calico/lib\libcalico_ds9.a(startup.crt0.o) (_pxiInit)
C:/devkitPro/calico/lib\libcalico_ds9.a(keypad.o)
                              C:/devkitPro/libnds/lib\libnds9.a(keys.o) (keypadGetState)
C:/devkitPro/calico/lib\libcalico_ds9.a(netbuf.o)
                              C:/devkitPro/libnds/lib\libdswifi9.a(wfc.o) (netbufAlloc)
C:/devkitPro/calico/lib\libcalico_ds9.a(bootstub_arm9.o)
                              (__ds9_bootstub)
C:/devkitPro/calico/lib\libcalico_ds9.a(mpu_setup.crt0.o)
                              C:/devkitPro/calico/lib\libcalico_ds9.a(startup.crt0.o) (crt0SetupMPU)
C:/devkitPro/calico/lib\libcalico_ds9.a(sys_startup.o)
                              C:/devkitPro/calico/lib\libcalico_ds9.a(startup.crt0.o) (systemStartup)
C:/devkitPro/calico/lib\libcalico_ds9.a(excpt_handler.32.o)
                              C:/devkitPro/calico/lib\libcalico_ds9.a(bootstub_arm9.o) (__arm_excpt_rst)
C:/devkitPro/calico/lib\libcalico_ds9.a(pm_arm9.o)
                              C:/devkitPro/libnds/lib\libdswifi9.a(wfc.o) (pmReadNvram)
C:/devkitPro/calico/lib\libcalico_ds9.a(touch.o)
                              C:/devkitPro/libnds/lib\libnds9.a(keys.o) (touchRead)
C:/devkitPro/calico/lib\libcalico_ds9.a(wlmgr.o)
                              C:/devkitPro/libnds/lib\libdswifi9.a(dswifi9.o) (wlmgrInit)
C:/devkitPro/calico/lib\libcalico_ds9.a(arm-cache.32.o)
                              C:/devkitPro/calico/lib\libcalico_ds9.a(startup.crt0.o) (armDCacheFlushAll)
C:/devkitPro/calico/lib\libcalico_ds9.a(irq_handler.32.o)
                              C:/devkitPro/calico/lib\libcalico_ds9.a(bootstub_arm9.o) (__arm_excpt_irq)
C:/devkitPro/calico/lib\libcalico_ds9.a(smutex.32.o)
                              C:/devkitPro/calico/lib\libcalico_ds9.a(netbuf.o) (smutexLock)
C:/devkitPro/calico/lib\libcalico_ds9.a(pm.o)
                              C:/devkitPro/calico/lib\libcalico_ds9.a(sys_startup.o) (pmInit)
C:/devkitPro/devkitARM/bin/../lib/gcc/arm-none-eabi/15.2.0/thumb\libgcc.a(_divsi3.o)
                              C:/devkitPro/libnds/lib\libnds9.a(console.o) (__aeabi_idivmod)
C:/devkitPro/devkitARM/bin/../lib/gcc/arm-none-eabi/15.2.0/thumb\libgcc.a(_dvmd_tls.o)
                              C:/devkitPro/devkitARM/bin/../lib/gcc/arm-none-eabi/15.2.0/thumb\libgcc.a(_divsi3.o) (__aeabi_idiv0)
C:/devkitPro/devkitARM/bin/../lib/gcc/arm-none-eabi/15.2.0/thumb\libgcc.a(_arm_cmpsf2.o)
                              main.o (__aeabi_fcmpgt)
C:/devkitPro/devkitARM/bin/../lib/gcc/arm-none-eabi/15.2.0/thumb\libgcc.a(_aeabi_uldivmod.o)
                              C:/devkitPro/calico/lib\libcalico_ds9.a(newlib_syscalls.o) (__aeabi_uldivmod)
C:/devkitPro/devkitARM/bin/../lib/gcc/arm-none-eabi/15.2.0/thumb\libgcc.a(_sync_none.o)
                              (__sync_synchronize_none)
C:/devkitPro/devkitARM/bin/../lib/gcc/arm-none-eabi/15.2.0/thumb\libgcc.a(_udivmoddi4.o)
                              C:/devkitPro/devkitARM/bin/../lib/gcc/arm-none-eabi/15.2.0/thumb\libgcc.a(_aeabi_uldivmod.o) (__udivmoddi4)
C:/devkitPro/devkitARM/bin/../lib/gcc/arm-none-eabi/15.2.0/thumb\libgcc.a(_clzdi2.o)
                              C:/devkitPro/devkitARM/bin/../lib/gcc/arm-none-eabi/15.2.0/thumb\libgcc.a(_udivmoddi4.o) (__clzdi2)
C:/devkitPro/devkitARM/bin/../lib/gcc/arm-none-eabi/15.2.0/thumb\libgcc.a(_clzsi2.o)
                              C:/devkitPro/devkitARM/bin/../lib/gcc/arm-none-eabi/15.2.0/thumb\libgcc.a(_clzdi2.o) (__clzsi2)
C:/devkitPro/devkitARM/bin/../lib/gcc/arm-none-eabi/15.2.0/../../../../arm-none-eabi/lib/thumb\libg.a(libc_a-strchr.o)
                              main.o (strchr)
C:/devkitPro/devkitARM/bin/../lib/gcc/arm-none-eabi/15.2.0/../../../../arm-none-eabi/lib/thumb\libg.a(libc_a-memmove.o)
                              C:/devkitPro/libnds/lib\libdswifi9.a(sgIP_TCP.o) (memmove)
C:/devkitPro/devkitARM/bin/../lib/gcc/arm-none-eabi/15.2.0/../../../../arm-none-eabi/lib/thumb\libg.a(libc_a-strlen.o)
                              main.o (strlen)
C:/devkitPro/devkitARM/bin/../lib/gcc/arm-none-eabi/15.2.0/../../../../arm-none-eabi/lib/thumb\libg.a(libc_a-sprintf.o)
                              main.o (sprintf)
C:/devkitPro/devkitARM/bin/../lib/gcc/arm-none-eabi/15.2.0/../../../../arm-none-eabi/lib/thumb\libg.a(libc_a-init.o)
                              C:/devkitPro/calico/lib\libcalico_ds9.a(bootstub_arm9.o) (__libc_init_array)
C:/devkitPro/devkitARM/bin/../lib/gcc/arm-none-eabi/15.2.0/../../../../arm-none-eabi/lib/thumb\libg.a(libc_a-bsearch.o)
                              C:/devkitPro/libnds/lib\libnds9.a(trig.o) (bsearch)
C:/devkitPro/devkitARM/bin/../lib/gcc/arm-none-eabi/15.2.0/../../../../arm-none-eabi/lib/thumb\libg.a(libc_a-siscanf.o)
                              C:/devkitPro/libnds/lib\libnds9.a(console.o) (siscanf)
C:/devkitPro/devkitARM/bin/../lib/gcc/arm-none-eabi/15.2.0/../../../../arm-none-eabi/lib/thumb\libg.a(libc_a-mallocr.o)
                              C:/devkitPro/calico/lib\libcalico_ds9.a(newlib_syscalls.o) (_malloc_r)
C:/devkitPro/devkitARM/bin/../lib/gcc/arm-none-eabi/15.2.0/../../../../arm-none-eabi/lib/thumb\libg.a(libc_a-freer.o)
                              C:/devkitPro/calico/lib\libcalico_ds9.a(newlib_syscalls.o) (_free_r)
C:/devkitPro/devkitARM/bin/../lib/gcc/arm-none-eabi/15.2.0/../../../../arm-none-eabi/lib/thumb\libg.a(libc_a-strtok.o)
                              main.o (strtok)
C:/devkitPro/devkitARM/bin/../lib/gcc/arm-none-eabi/15.2.0/../../../../arm-none-eabi/lib/thumb\libg.a(libc_a-svfprintf.o)
                              C:/devkitPro/devkitARM/bin/../lib/gcc/arm-none-eabi/15.2.0/../../../../arm-none-eabi/lib/thumb\libg.a(libc_a-sprintf.o) (_svfprintf_r)
C:/devkitPro/devkitARM/bin/../lib/gcc/arm-none-eabi/15.2.0/../../../../arm-none-eabi/lib/thumb\libg.a(libc_a-strnlen.o)
                              C:/devkitPro/libnds/lib\libdswifi9.a(wfc.o) (strnlen)
C:/devkitPro/devkitARM/bin/../lib/gcc/arm-none-eabi/15.2.0/../../../../arm-none-eabi/lib/thumb\libg.a(libc_a-malloc.o)
                              C:/devkitPro/libnds/lib\libdswifi9.a(wfc.o) (malloc)
C:/devkitPro/devkitARM/bin/../lib/gcc/arm-none-eabi/15.2.0/../../../../arm-none-eabi/lib/thumb\libg.a(libc_a-strstr.o)
                              main.o (strstr)
C:/devkitPro/devkitARM/bin/../lib/gcc/arm-none-eabi/15.2.0/../../../../arm-none-eabi/lib/thumb\libg.a(libc_a-memset.o)
                              main.o (memset)
C:/devkitPro/devkitARM/bin/../lib/gcc/arm-none-eabi/15.2.0/../../../../arm-none-eabi/lib/thumb\libg.a(libc_a-mlock.o)
                              C:/devkitPro/devkitARM/bin/../lib/gcc/arm-none-eabi/15.2.0/../../../../arm-none-eabi/lib/thumb\libg.a(libc_a-mallocr.o) (__malloc_lock)
C:/devkitPro/devkitARM/bin/../lib/gcc/arm-none-eabi/15.2.0/../../../../arm-none-eabi/lib/thumb\libg.a(libc_a-exit.o)
                              C:/devkitPro/calico/lib\libcalico_ds9.a(bootstub_arm9.o) (exit)
C:/devkitPro/devkitARM/bin/../lib/gcc/arm-none-eabi/15.2.0/../../../../arm-none-eabi/lib/thumb\libg.a(libc_a-setvbuf.o)
                              C:/devkitPro/libnds/lib\libnds9.a(console.o) (setvbuf)
C:/devkitPro/devkitARM/bin/../lib/gcc/arm-none-eabi/15.2.0/../../../../arm-none-eabi/lib/thumb\libg.a(libc_a-strtok_r.o)
                              C:/devkitPro/devkitARM/bin/../lib/gcc/arm-none-eabi/15.2.0/../../../../arm-none-eabi/lib/thumb\libg.a(libc_a-strtok.o) (__strtok_r)
C:/devkitPro/devkitARM/bin/../lib/gcc/arm-none-eabi/15.2.0/../../../../arm-none-eabi/lib/thumb\libg.a(libc_a-sysclose.o)
                              main.o (close)
C:/devkitPro/devkitARM/bin/../lib/gcc/arm-none-eabi/15.2.0/../../../../arm-none-eabi/lib/thumb\libg.a(libc_a-strncpy.o)
                              main.o (strncpy)
C:/devkitPro/devkitARM/bin/../lib/gcc/arm-none-eabi/15.2.0/../../../../arm-none-eabi/lib/thumb\libg.a(libc_a-memcpy-stub.o)
                              C:/devkitPro/libnds/lib\libdswifi9.a(sgIP_DHCP.o) (memcpy)
C:/devkitPro/devkitARM/bin/../lib/gcc/arm-none-eabi/15.2.0/../../../../arm-none-eabi/lib/thumb\libg.a(libc_a-wcsrtombs.o)
                              C:/devkitPro/devkitARM/bin/../lib/gcc/arm-none-eabi/15.2.0/../../../../arm-none-eabi/lib/thumb\libg.a(libc_a-svfprintf.o) (_wcsrtombs_r)
C:/devkitPro/devkitARM/bin/../lib/gcc/arm-none-eabi/15.2.0/../../../../arm-none-eabi/lib/thumb\libg.a(libc_a-svfiprintf.o)
                              C:/devkitPro/devkitARM/bin/../lib/gcc/arm-none-eabi/15.2.0/../../../../arm-none-eabi/lib/thumb\libg.a(libc_a-svfprintf.o) (__chclass)
C:/devkitPro/devkitARM/bin/../lib/gcc/arm-none-eabi/15.2.0/../../../../arm-none-eabi/lib/thumb\libg.a(libc_a-sscanf.o)
                              main.o (sscanf)
C:/devkitPro/devkitARM/bin/../lib/gcc/arm-none-eabi/15.2.0/../../../../arm-none-eabi/lib/thumb\libg.a(libc_a-iprintf.o)
                              main.o (iprintf)
C:/devkitPro/devkitARM/bin/../lib/gcc/arm-none-eabi/15.2.0/../../../../arm-none-eabi/lib/thumb\libg.a(libm_a-s_frexp.o)
                              C:/devkitPro/devkitARM/bin/../lib/gcc/arm-none-eabi/15.2.0/../../../../arm-none-eabi/lib/thumb\libg.a(libc_a-svfprintf.o) (frexp)
C:/devkitPro/devkitARM/bin/../lib/gcc/arm-none-eabi/15.2.0/../../../../arm-none-eabi/lib/thumb\libg.a(libc_a-stdio.o)
                              C:/devkitPro/devkitARM/bin/../lib/gcc/arm-none-eabi/15.2.0/../../../../arm-none-eabi/lib/thumb\libg.a(libc_a-siscanf.o) (__seofread)
C:/devkitPro/devkitARM/bin/../lib/gcc/arm-none-eabi/15.2.0/../../../../arm-none-eabi/lib/thumb\libg.a(libc_a-locale.o)
                              C:/devkitPro/devkitARM/bin/../lib/gcc/arm-none-eabi/15.2.0/../../../../arm-none-eabi/lib/thumb\libg.a(libc_a-svfprintf.o) (__global_locale)
C:/devkitPro/devkitARM/bin/../lib/gcc/arm-none-eabi/15.2.0/../../../../arm-none-eabi/lib/thumb\libg.a(libc_a-ssprint_r.o)
                              C:/devkitPro/devkitARM/bin/../lib/gcc/arm-none-eabi/15.2.0/../../../../arm-none-eabi/lib/thumb\libg.a(libc_a-svfprintf.o) (__ssprint_r)
C:/devkitPro/devkitARM/bin/../lib/gcc/arm-none-eabi/15.2.0/../../../../arm-none-eabi/lib/thumb\libg.a(libc_a-vfiprintf.o)
                              C:/devkitPro/devkitARM/bin/../lib/gcc/arm-none-eabi/15.2.0/../../../../arm-none-eabi/lib/thumb\libg.a(libc_a-iprintf.o) (_vfiprintf_r)
C:/devkitPro/devkitARM/bin/../lib/gcc/arm-none-eabi/15.2.0/../../../../arm-none-eabi/lib/thumb\libg.a(libc_a-malignr.o)
                              C:/devkitPro/devkitARM/bin/../lib/gcc/arm-none-eabi/15.2.0/../../../../arm-none-eabi/lib/thumb\libg.a(libc_a-malloc.o) (_memalign_r)
C:/devkitPro/devkitARM/bin/../lib/gcc/arm-none-eabi/15.2.0/../../../../arm-none-eabi/lib/thumb\libg.a(libc_a-strcat.o)
                              C:/devkitPro/devkitARM/bin/../lib/gcc/arm-none-eabi/15.2.0/../../../../arm-none-eabi/lib/thumb\libg.a(libc_a-locale.o) (strcat)
C:/devkitPro/devkitARM/bin/../lib/gcc/arm-none-eabi/15.2.0/../../../../arm-none-eabi/lib/thumb\libg.a(libc_a-wcsnrtombs.o)
                              C:/devkitPro/devkitARM/bin/../lib/gcc/arm-none-eabi/15.2.0/../../../../arm-none-eabi/lib/thumb\libg.a(libc_a-wcsrtombs.o) (_wcsnrtombs_r)
C:/devkitPro/devkitARM/bin/../lib/gcc/arm-none-eabi/15.2.0/../../../../arm-none-eabi/lib/thumb\libg.a(libc_a-svfiscanf.o)
                              C:/devkitPro/devkitARM/bin/../lib/gcc/arm-none-eabi/15.2.0/../../../../arm-none-eabi/lib/thumb\libg.a(libc_a-siscanf.o) (__ssvfiscanf_r)
C:/devkitPro/devkitARM/bin/../lib/gcc/arm-none-eabi/15.2.0/../../../../arm-none-eabi/lib/thumb\libg.a(libc_a-memcmp.o)
                              C:/devkitPro/devkitARM/bin/../lib/gcc/arm-none-eabi/15.2.0/../../../../arm-none-eabi/lib/thumb\libg.a(libc_a-strstr.o) (memcmp)
C:/devkitPro/devkitARM/bin/../lib/gcc/arm-none-eabi/15.2.0/../../../../arm-none-eabi/lib/thumb\libg.a(libc_a-findfp.o)
                              C:/devkitPro/devkitARM/bin/../lib/gcc/arm-none-eabi/15.2.0/../../../../arm-none-eabi/lib/thumb\libg.a(libc_a-setvbuf.o) (__sinit)
C:/devkitPro/devkitARM/bin/../lib/gcc/arm-none-eabi/15.2.0/../../../../arm-none-eabi/lib/thumb\libg.a(libc_a-strtoul.o)
                              C:/devkitPro/devkitARM/bin/../lib/gcc/arm-none-eabi/15.2.0/../../../../arm-none-eabi/lib/thumb\libg.a(libc_a-svfiscanf.o) (_strtoul_r)
C:/devkitPro/devkitARM/bin/../lib/gcc/arm-none-eabi/15.2.0/../../../../arm-none-eabi/lib/thumb\libg.a(libc_a-mbtowc_r.o)
                              C:/devkitPro/devkitARM/bin/../lib/gcc/arm-none-eabi/15.2.0/../../../../arm-none-eabi/lib/thumb\libg.a(libc_a-locale.o) (__ascii_mbtowc)
C:/devkitPro/devkitARM/bin/../lib/gcc/arm-none-eabi/15.2.0/../../../../arm-none-eabi/lib/thumb\libg.a(libc_a-fwalk.o)
                              C:/devkitPro/devkitARM/bin/../lib/gcc/arm-none-eabi/15.2.0/../../../../arm-none-eabi/lib/thumb\libg.a(libc_a-findfp.o) (_fwalk_sglue)
C:/devkitPro/devkitARM/bin/../lib/gcc/arm-none-eabi/15.2.0/../../../../arm-none-eabi/lib/thumb\libg.a(libc_a-sprint_r.o)
                              C:/devkitPro/devkitARM/bin/../lib/gcc/arm-none-eabi/15.2.0/../../../../arm-none-eabi/lib/thumb\libg.a(libc_a-vfiprintf.o) (__sprint_r)
C:/devkitPro/devkitARM/bin/../lib/gcc/arm-none-eabi/15.2.0/../../../../arm-none-eabi/lib/thumb\libg.a(libc_a-iswspace.o)
                              C:/devkitPro/devkitARM/bin/../lib/gcc/arm-none-eabi/15.2.0/../../../../arm-none-eabi/lib/thumb\libg.a(libc_a-svfiscanf.o) (iswspace)
C:/devkitPro/devkitARM/bin/../lib/gcc/arm-none-eabi/15.2.0/../../../../arm-none-eabi/lib/thumb\libg.a(libc_a-localeconv.o)
                              C:/devkitPro/devkitARM/bin/../lib/gcc/arm-none-eabi/15.2.0/../../../../arm-none-eabi/lib/thumb\libg.a(libc_a-svfprintf.o) (_localeconv_r)
C:/devkitPro/devkitARM/bin/../lib/gcc/arm-none-eabi/15.2.0/../../../../arm-none-eabi/lib/thumb\libg.a(libc_a-realloc.o)
                              C:/devkitPro/devkitARM/bin/../lib/gcc/arm-none-eabi/15.2.0/../../../../arm-none-eabi/lib/thumb\libg.a(libc_a-svfiscanf.o) (realloc)
C:/devkitPro/devkitARM/bin/../lib/gcc/arm-none-eabi/15.2.0/../../../../arm-none-eabi/lib/thumb\libg.a(libc_a-strlcpy.o)
                              C:/devkitPro/devkitARM/bin/../lib/gcc/arm-none-eabi/15.2.0/../../../../arm-none-eabi/lib/thumb\libg.a(libc_a-locale.o) (strlcpy)
C:/devkitPro/devkitARM/bin/../lib/gcc/arm-none-eabi/15.2.0/../../../../arm-none-eabi/lib/thumb\libg.a(libc_a-memchr-stub.o)
                              C:/devkitPro/devkitARM/bin/../lib/gcc/arm-none-eabi/15.2.0/../../../../arm-none-eabi/lib/thumb\libg.a(libc_a-svfprintf.o) (memchr)
C:/devkitPro/devkitARM/bin/../lib/gcc/arm-none-eabi/15.2.0/../../../../arm-none-eabi/lib/thumb\libg.a(libc_a-strcasecmp.o)
                              C:/devkitPro/devkitARM/bin/../lib/gcc/arm-none-eabi/15.2.0/../../../../arm-none-eabi/lib/thumb\libg.a(libc_a-locale.o) (strcasecmp)
C:/devkitPro/devkitARM/bin/../lib/gcc/arm-none-eabi/15.2.0/../../../../arm-none-eabi/lib/thumb\libg.a(libc_a-dtoa.o)
                              C:/devkitPro/devkitARM/bin/../lib/gcc/arm-none-eabi/15.2.0/../../../../arm-none-eabi/lib/thumb\libg.a(libc_a-svfprintf.o) (_dtoa_r)
C:/devkitPro/devkitARM/bin/../lib/gcc/arm-none-eabi/15.2.0/../../../../arm-none-eabi/lib/thumb\libg.a(libc_a-wcrtomb.o)
                              C:/devkitPro/devkitARM/bin/../lib/gcc/arm-none-eabi/15.2.0/../../../../arm-none-eabi/lib/thumb\libg.a(libc_a-svfprintf.o) (_wcrtomb_r)
C:/devkitPro/devkitARM/bin/../lib/gcc/arm-none-eabi/15.2.0/../../../../arm-none-eabi/lib/thumb\libg.a(libc_a-strcpy.o)
                              C:/devkitPro/devkitARM/bin/../lib/gcc/arm-none-eabi/15.2.0/../../../../arm-none-eabi/lib/thumb\libg.a(libc_a-locale.o) (strcpy)
C:/devkitPro/devkitARM/bin/../lib/gcc/arm-none-eabi/15.2.0/../../../../arm-none-eabi/lib/thumb\libg.a(libc_a-strtol.o)
                              C:/devkitPro/devkitARM/bin/../lib/gcc/arm-none-eabi/15.2.0/../../../../arm-none-eabi/lib/thumb\libg.a(libc_a-svfiscanf.o) (_strtol_r)
C:/devkitPro/devkitARM/bin/../lib/gcc/arm-none-eabi/15.2.0/../../../../arm-none-eabi/lib/thumb\libg.a(libc_a-fini.o)
                              C:/devkitPro/devkitARM/bin/../lib/gcc/arm-none-eabi/15.2.0/../../../../arm-none-eabi/lib/thumb\libg.a(libc_a-exit.o) (__libc_fini_array)
C:/devkitPro/devkitARM/bin/../lib/gcc/arm-none-eabi/15.2.0/../../../../arm-none-eabi/lib/thumb\libg.a(libc_a-sccl.o)
                              C:/devkitPro/devkitARM/bin/../lib/gcc/arm-none-eabi/15.2.0/../../../../arm-none-eabi/lib/thumb\libg.a(libc_a-svfiscanf.o) (__sccl)
C:/devkitPro/devkitARM/bin/../lib/gcc/arm-none-eabi/15.2.0/../../../../arm-none-eabi/lib/thumb\libg.a(libc_a-fflush.o)
                              C:/devkitPro/devkitARM/bin/../lib/gcc/arm-none-eabi/15.2.0/../../../../arm-none-eabi/lib/thumb\libg.a(libc_a-setvbuf.o) (_fflush_r)
C:/devkitPro/devkitARM/bin/../lib/gcc/arm-none-eabi/15.2.0/../../../../arm-none-eabi/lib/thumb\libg.a(libc_a-ctype_.o)
                              C:/devkitPro/devkitARM/bin/../lib/gcc/arm-none-eabi/15.2.0/../../../../arm-none-eabi/lib/thumb\libg.a(libc_a-locale.o) (__set_ctype)
C:/devkitPro/devkitARM/bin/../lib/gcc/arm-none-eabi/15.2.0/../../../../arm-none-eabi/lib/thumb\libg.a(libc_a-makebuf.o)
                              C:/devkitPro/devkitARM/bin/../lib/gcc/arm-none-eabi/15.2.0/../../../../arm-none-eabi/lib/thumb\libg.a(libc_a-setvbuf.o) (__swhatbuf_r)
C:/devkitPro/devkitARM/bin/../lib/gcc/arm-none-eabi/15.2.0/../../../../arm-none-eabi/lib/thumb\libg.a(libc_a-getenv_r.o)
                              C:/devkitPro/devkitARM/bin/../lib/gcc/arm-none-eabi/15.2.0/../../../../arm-none-eabi/lib/thumb\libg.a(libc_a-locale.o) (_getenv_r)
C:/devkitPro/devkitARM/bin/../lib/gcc/arm-none-eabi/15.2.0/../../../../arm-none-eabi/lib/thumb\libg.a(libc_a-reallocr.o)
                              C:/devkitPro/devkitARM/bin/../lib/gcc/arm-none-eabi/15.2.0/../../../../arm-none-eabi/lib/thumb\libg.a(libc_a-realloc.o) (_realloc_r)
C:/devkitPro/devkitARM/bin/../lib/gcc/arm-none-eabi/15.2.0/../../../../arm-none-eabi/lib/thumb\libg.a(libc_a-ssputs_r.o)
                              C:/devkitPro/devkitARM/bin/../lib/gcc/arm-none-eabi/15.2.0/../../../../arm-none-eabi/lib/thumb\libg.a(libc_a-ssprint_r.o) (__ssputs_r)
C:/devkitPro/devkitARM/bin/../lib/gcc/arm-none-eabi/15.2.0/../../../../arm-none-eabi/lib/thumb\libg.a(libc_a-strncasecmp.o)
                              C:/devkitPro/devkitARM/bin/../lib/gcc/arm-none-eabi/15.2.0/../../../../arm-none-eabi/lib/thumb\libg.a(libc_a-locale.o) (strncasecmp)
C:/devkitPro/devkitARM/bin/../lib/gcc/arm-none-eabi/15.2.0/../../../../arm-none-eabi/lib/thumb\libg.a(libc_a-impure.o)
                              C:/devkitPro/devkitARM/bin/../lib/gcc/arm-none-eabi/15.2.0/../../../../arm-none-eabi/lib/thumb\libg.a(libc_a-findfp.o) (_impure_data)
C:/devkitPro/devkitARM/bin/../lib/gcc/arm-none-eabi/15.2.0/../../../../arm-none-eabi/lib/thumb\libg.a(libc_a-strcmp.o)
                              C:/devkitPro/devkitARM/bin/../lib/gcc/arm-none-eabi/15.2.0/../../../../arm-none-eabi/lib/thumb\libg.a(libc_a-locale.o) (strcmp)
C:/devkitPro/devkitARM/bin/../lib/gcc/arm-none-eabi/15.2.0/../../../../arm-none-eabi/lib/thumb\libg.a(libc_a-svfscanf.o)
                              C:/devkitPro/devkitARM/bin/../lib/gcc/arm-none-eabi/15.2.0/../../../../arm-none-eabi/lib/thumb\libg.a(libc_a-sscanf.o) (__ssvfscanf_r)
C:/devkitPro/devkitARM/bin/../lib/gcc/arm-none-eabi/15.2.0/../../../../arm-none-eabi/lib/thumb\libg.a(libc_a-wctomb_r.o)
                              C:/devkitPro/devkitARM/bin/../lib/gcc/arm-none-eabi/15.2.0/../../../../arm-none-eabi/lib/thumb\libg.a(libc_a-locale.o) (__ascii_wctomb)
C:/devkitPro/devkitARM/bin/../lib/gcc/arm-none-eabi/15.2.0/../../../../arm-none-eabi/lib/thumb\libg.a(libc_a-strtoull.o)
                              C:/devkitPro/devkitARM/bin/../lib/gcc/arm-none-eabi/15.2.0/../../../../arm-none-eabi/lib/thumb\libg.a(libc_a-svfiscanf.o) (_strtoull_r)
C:/devkitPro/devkitARM/bin/../lib/gcc/arm-none-eabi/15.2.0/../../../../arm-none-eabi/lib/thumb\libg.a(libc_a-mbrtowc.o)
                              C:/devkitPro/devkitARM/bin/../lib/gcc/arm-none-eabi/15.2.0/../../../../arm-none-eabi/lib/thumb\libg.a(libc_a-svfiscanf.o) (_mbrtowc_r)
C:/devkitPro/devkitARM/bin/../lib/gcc/arm-none-eabi/15.2.0/../../../../arm-none-eabi/lib/thumb\libg.a(libc_a-wsetup.o)
                              C:/devkitPro/devkitARM/bin/../lib/gcc/arm-none-eabi/15.2.0/../../../../arm-none-eabi/lib/thumb\libg.a(libc_a-vfiprintf.o) (__swsetup_r)
C:/devkitPro/devkitARM/bin/../lib/gcc/arm-none-eabi/15.2.0/../../../../arm-none-eabi/lib/thumb\libg.a(libm_a-sf_nan.o)
                              C:/devkitPro/devkitARM/bin/../lib/gcc/arm-none-eabi/15.2.0/../../../../arm-none-eabi/lib/thumb\libg.a(libc_a-svfscanf.o) (nanf)
C:/devkitPro/devkitARM/bin/../lib/gcc/arm-none-eabi/15.2.0/../../../../arm-none-eabi/lib/thumb\libg.a(libc_a-strncmp.o)
                              C:/devkitPro/devkitARM/bin/../lib/gcc/arm-none-eabi/15.2.0/../../../../arm-none-eabi/lib/thumb\libg.a(libc_a-getenv_r.o) (strncmp)
C:/devkitPro/devkitARM/bin/../lib/gcc/arm-none-eabi/15.2.0/../../../../arm-none-eabi/lib/thumb\libg.a(libc_a-fvwrite.o)
                              C:/devkitPro/devkitARM/bin/../lib/gcc/arm-none-eabi/15.2.0/../../../../arm-none-eabi/lib/thumb\libg.a(libc_a-sprint_r.o) (__sfvwrite_r)
C:/devkitPro/devkitARM/bin/../lib/gcc/arm-none-eabi/15.2.0/../../../../arm-none-eabi/lib/thumb\libg.a(libc_a-envlock.o)
                              C:/devkitPro/devkitARM/bin/../lib/gcc/arm-none-eabi/15.2.0/../../../../arm-none-eabi/lib/thumb\libg.a(libc_a-getenv_r.o) (__env_lock)
C:/devkitPro/devkitARM/bin/../lib/gcc/arm-none-eabi/15.2.0/../../../../arm-none-eabi/lib/thumb\libg.a(libc_a-assert.o)
                              C:/devkitPro/devkitARM/bin/../lib/gcc/arm-none-eabi/15.2.0/../../../../arm-none-eabi/lib/thumb\libg.a(libc_a-dtoa.o) (__assert_func)
C:/devkitPro/devkitARM/bin/../lib/gcc/arm-none-eabi/15.2.0/../../../../arm-none-eabi/lib/thumb\libg.a(libc_a-iswspace_l.o)
                              C:/devkitPro/devkitARM/bin/../lib/gcc/arm-none-eabi/15.2.0/../../../../arm-none-eabi/lib/thumb\libg.a(libc_a-iswspace.o) (iswspace_l)
C:/devkitPro/devkitARM/bin/../lib/gcc/arm-none-eabi/15.2.0/../../../../arm-none-eabi/lib/thumb\libg.a(libc_a-mprec.o)
                              C:/devkitPro/devkitARM/bin/../lib/gcc/arm-none-eabi/15.2.0/../../../../arm-none-eabi/lib/thumb\libg.a(libc_a-dtoa.o) (_Balloc)
C:/devkitPro/devkitARM/bin/../lib/gcc/arm-none-eabi/15.2.0/../../../../arm-none-eabi/lib/thumb\libg.a(libc_a-fclose.o)
                              C:/devkitPro/devkitARM/bin/../lib/gcc/arm-none-eabi/15.2.0/../../../../arm-none-eabi/lib/thumb\libg.a(libc_a-findfp.o) (_fclose_r)
C:/devkitPro/devkitARM/bin/../lib/gcc/arm-none-eabi/15.2.0/../../../../arm-none-eabi/lib/thumb\libg.a(libc_a-strtoll.o)
                              C:/devkitPro/devkitARM/bin/../lib/gcc/arm-none-eabi/15.2.0/../../../../arm-none-eabi/lib/thumb\libg.a(libc_a-svfiscanf.o) (_strtoll_r)
C:/devkitPro/devkitARM/bin/../lib/gcc/arm-none-eabi/15.2.0/../../../../arm-none-eabi/lib/thumb\libg.a(libc_a-ungetc.o)
                              C:/devkitPro/devkitARM/bin/../lib/gcc/arm-none-eabi/15.2.0/../../../../arm-none-eabi/lib/thumb\libg.a(libc_a-svfiscanf.o) (__submore)
C:/devkitPro/devkitARM/bin/../lib/gcc/arm-none-eabi/15.2.0/../../../../arm-none-eabi/lib/thumb\libg.a(libc_a-strtod.o)
                              C:/devkitPro/devkitARM/bin/../lib/gcc/arm-none-eabi/15.2.0/../../../../arm-none-eabi/lib/thumb\libg.a(libc_a-svfscanf.o) (_strtod_r)
C:/devkitPro/devkitARM/bin/../lib/gcc/arm-none-eabi/15.2.0/../../../../arm-none-eabi/lib/thumb\libg.a(libc_a-fiprintf.o)
                              C:/devkitPro/devkitARM/bin/../lib/gcc/arm-none-eabi/15.2.0/../../../../arm-none-eabi/lib/thumb\libg.a(libc_a-assert.o) (fiprintf)
C:/devkitPro/devkitARM/bin/../lib/gcc/arm-none-eabi/15.2.0/../../../../arm-none-eabi/lib/thumb\libg.a(libc_a-gdtoa-gethex.o)
                              C:/devkitPro/devkitARM/bin/../lib/gcc/arm-none-eabi/15.2.0/../../../../arm-none-eabi/lib/thumb\libg.a(libc_a-strtod.o) (__gethex)
C:/devkitPro/devkitARM/bin/../lib/gcc/arm-none-eabi/15.2.0/../../../../arm-none-eabi/lib/thumb\libg.a(libc_a-environ.o)
                              C:/devkitPro/devkitARM/bin/../lib/gcc/arm-none-eabi/15.2.0/../../../../arm-none-eabi/lib/thumb\libg.a(libc_a-getenv_r.o) (environ)
C:/devkitPro/devkitARM/bin/../lib/gcc/arm-none-eabi/15.2.0/../../../../arm-none-eabi/lib/thumb\libg.a(libc_a-abort.o)
                              C:/devkitPro/devkitARM/bin/../lib/gcc/arm-none-eabi/15.2.0/../../../../arm-none-eabi/lib/thumb\libg.a(libc_a-assert.o) (abort)
C:/devkitPro/devkitARM/bin/../lib/gcc/arm-none-eabi/15.2.0/../../../../arm-none-eabi/lib/thumb\libg.a(libc_a-callocr.o)
                              C:/devkitPro/devkitARM/bin/../lib/gcc/arm-none-eabi/15.2.0/../../../../arm-none-eabi/lib/thumb\libg.a(libc_a-mprec.o) (_calloc_r)
C:/devkitPro/devkitARM/bin/../lib/gcc/arm-none-eabi/15.2.0/../../../../arm-none-eabi/lib/thumb\libg.a(libc_a-categories.o)
                              C:/devkitPro/devkitARM/bin/../lib/gcc/arm-none-eabi/15.2.0/../../../../arm-none-eabi/lib/thumb\libg.a(libc_a-iswspace_l.o) (category)
C:/devkitPro/devkitARM/bin/../lib/gcc/arm-none-eabi/15.2.0/../../../../arm-none-eabi/lib/thumb\libg.a(libc_a-stpncpy.o)
                              C:/devkitPro/devkitARM/bin/../lib/gcc/arm-none-eabi/15.2.0/../../../../arm-none-eabi/lib/thumb\libg.a(libc_a-svfscanf.o) (stpncpy)
C:/devkitPro/devkitARM/bin/../lib/gcc/arm-none-eabi/15.2.0/../../../../arm-none-eabi/lib/thumb\libg.a(libc_a-gdtoa-hexnan.o)
                              C:/devkitPro/devkitARM/bin/../lib/gcc/arm-none-eabi/15.2.0/../../../../arm-none-eabi/lib/thumb\libg.a(libc_a-strtod.o) (__match)
C:/devkitPro/devkitARM/bin/../lib/gcc/arm-none-eabi/15.2.0/../../../../arm-none-eabi/lib/thumb\libg.a(libm_a-s_nan.o)
                              C:/devkitPro/devkitARM/bin/../lib/gcc/arm-none-eabi/15.2.0/../../../../arm-none-eabi/lib/thumb\libg.a(libc_a-strtod.o) (nan)
C:/devkitPro/devkitARM/bin/../lib/gcc/arm-none-eabi/15.2.0/../../../../arm-none-eabi/lib/thumb\libg.a(libc_a-signal.o)
                              C:/devkitPro/devkitARM/bin/../lib/gcc/arm-none-eabi/15.2.0/../../../../arm-none-eabi/lib/thumb\libg.a(libc_a-abort.o) (raise)
C:/devkitPro/devkitARM/bin/../lib/gcc/arm-none-eabi/15.2.0/../../../../arm-none-eabi/lib/thumb\libsysbase.a(libsysbase_libsysbase_a-_exit.o)
                              C:/devkitPro/devkitARM/bin/../lib/gcc/arm-none-eabi/15.2.0/../../../../arm-none-eabi/lib/thumb\libg.a(libc_a-exit.o) (_exit)
C:/devkitPro/devkitARM/bin/../lib/gcc/arm-none-eabi/15.2.0/../../../../arm-none-eabi/lib/thumb\libsysbase.a(libsysbase_libsysbase_a-fstat.o)
                              C:/devkitPro/devkitARM/bin/../lib/gcc/arm-none-eabi/15.2.0/../../../../arm-none-eabi/lib/thumb\libg.a(libc_a-makebuf.o) (_fstat_r)
C:/devkitPro/devkitARM/bin/../lib/gcc/arm-none-eabi/15.2.0/../../../../arm-none-eabi/lib/thumb\libsysbase.a(libsysbase_libsysbase_a-getpid.o)
                              C:/devkitPro/devkitARM/bin/../lib/gcc/arm-none-eabi/15.2.0/../../../../arm-none-eabi/lib/thumb\libg.a(libc_a-signal.o) (_getpid_r)
C:/devkitPro/devkitARM/bin/../lib/gcc/arm-none-eabi/15.2.0/../../../../arm-none-eabi/lib/thumb\libsysbase.a(libsysbase_libsysbase_a-getreent.o)
                              C:/devkitPro/libnds/lib\libnds9.a(console.o) (__getreent)
C:/devkitPro/devkitARM/bin/../lib/gcc/arm-none-eabi/15.2.0/../../../../arm-none-eabi/lib/thumb\libsysbase.a(libsysbase_libsysbase_a-handle_manager.o)
                              C:/devkitPro/devkitARM/bin/../lib/gcc/arm-none-eabi/15.2.0/../../../../arm-none-eabi/lib/thumb\libsysbase.a(libsysbase_libsysbase_a-fstat.o) (__get_handle)
C:/devkitPro/devkitARM/bin/../lib/gcc/arm-none-eabi/15.2.0/../../../../arm-none-eabi/lib/thumb\libsysbase.a(libsysbase_libsysbase_a-iosupport.o)
                              C:/devkitPro/libnds/lib\libnds9.a(console.o) (devoptab_list)
C:/devkitPro/devkitARM/bin/../lib/gcc/arm-none-eabi/15.2.0/../../../../arm-none-eabi/lib/thumb\libsysbase.a(libsysbase_libsysbase_a-isatty.o)
                              C:/devkitPro/devkitARM/bin/../lib/gcc/arm-none-eabi/15.2.0/../../../../arm-none-eabi/lib/thumb\libg.a(libc_a-makebuf.o) (_isatty_r)
C:/devkitPro/devkitARM/bin/../lib/gcc/arm-none-eabi/15.2.0/../../../../arm-none-eabi/lib/thumb\libsysbase.a(libsysbase_libsysbase_a-kill.o)
                              C:/devkitPro/devkitARM/bin/../lib/gcc/arm-none-eabi/15.2.0/../../../../arm-none-eabi/lib/thumb\libg.a(libc_a-signal.o) (_kill_r)
C:/devkitPro/devkitARM/bin/../lib/gcc/arm-none-eabi/15.2.0/../../../../arm-none-eabi/lib/thumb\libsysbase.a(libsysbase_libsysbase_a-lseek.o)
                              C:/devkitPro/devkitARM/bin/../lib/gcc/arm-none-eabi/15.2.0/../../../../arm-none-eabi/lib/thumb\libg.a(libc_a-stdio.o) (_lseek_r)
C:/devkitPro/devkitARM/bin/../lib/gcc/arm-none-eabi/15.2.0/../../../../arm-none-eabi/lib/thumb\libsysbase.a(libsysbase_libsysbase_a-malloc_vars.o)
                              C:/devkitPro/calico/lib\libcalico_ds9.a(startup.crt0.o) (fake_heap_start)
C:/devkitPro/devkitARM/bin/../lib/gcc/arm-none-eabi/15.2.0/../../../../arm-none-eabi/lib/thumb\libsysbase.a(libsysbase_libsysbase_a-read.o)
                              C:/devkitPro/devkitARM/bin/../lib/gcc/arm-none-eabi/15.2.0/../../../../arm-none-eabi/lib/thumb\libg.a(libc_a-stdio.o) (_read_r)
C:/devkitPro/devkitARM/bin/../lib/gcc/arm-none-eabi/15.2.0/../../../../arm-none-eabi/lib/thumb\libsysbase.a(libsysbase_libsysbase_a-sbrk.o)
                              C:/devkitPro/devkitARM/bin/../lib/gcc/arm-none-eabi/15.2.0/../../../../arm-none-eabi/lib/thumb\libg.a(libc_a-mallocr.o) (_sbrk_r)
C:/devkitPro/devkitARM/bin/../lib/gcc/arm-none-eabi/15.2.0/../../../../arm-none-eabi/lib/thumb\libsysbase.a(libsysbase_libsysbase_a-syscall_support.o)
                              C:/devkitPro/devkitARM/bin/../lib/gcc/arm-none-eabi/15.2.0/../../../../arm-none-eabi/lib/thumb\libsysbase.a(libsysbase_libsysbase_a-handle_manager.o) (__libc_lock_acquire)
C:/devkitPro/devkitARM/bin/../lib/gcc/arm-none-eabi/15.2.0/../../../../arm-none-eabi/lib/thumb\libsysbase.a(libsysbase_libsysbase_a-write.o)
                              C:/devkitPro/devkitARM/bin/../lib/gcc/arm-none-eabi/15.2.0/../../../../arm-none-eabi/lib/thumb\libg.a(libc_a-stdio.o) (_write_r)
C:/devkitPro/devkitARM/bin/../lib/gcc/arm-none-eabi/15.2.0/../../../../arm-none-eabi/lib/thumb\libsysbase.a(libsysbase_libsysbase_a-clocks.o)
                              C:/devkitPro/devkitARM/bin/../lib/gcc/arm-none-eabi/15.2.0/../../../../arm-none-eabi/lib/thumb\libsysbase.a(libsysbase_libsysbase_a-syscall_support.o) (clock_gettime)
C:/devkitPro/devkitARM/bin/../lib/gcc/arm-none-eabi/15.2.0/thumb\libgcc.a(_thumb1_case_uqi.o)
                              C:/devkitPro/devkitARM/bin/../lib/gcc/arm-none-eabi/15.2.0/../../../../arm-none-eabi/lib/thumb\libg.a(libc_a-svfprintf.o) (__gnu_thumb1_case_uqi)
C:/devkitPro/devkitARM/bin/../lib/gcc/arm-none-eabi/15.2.0/thumb\libgcc.a(_thumb1_case_uhi.o)
                              C:/devkitPro/devkitARM/bin/../lib/gcc/arm-none-eabi/15.2.0/../../../../arm-none-eabi/lib/thumb\libg.a(libc_a-svfprintf.o) (__gnu_thumb1_case_uhi)
C:/devkitPro/devkitARM/bin/../lib/gcc/arm-none-eabi/15.2.0/thumb\libgcc.a(_arm_muldf3.o)
                              C:/devkitPro/devkitARM/bin/../lib/gcc/arm-none-eabi/15.2.0/../../../../arm-none-eabi/lib/thumb\libg.a(libc_a-svfprintf.o) (__aeabi_dmul)
C:/devkitPro/devkitARM/bin/../lib/gcc/arm-none-eabi/15.2.0/thumb\libgcc.a(_udivsi3.o)
                              C:/devkitPro/devkitARM/bin/../lib/gcc/arm-none-eabi/15.2.0/../../../../arm-none-eabi/lib/thumb\libg.a(libc_a-svfiscanf.o) (__aeabi_uidiv)
C:/devkitPro/devkitARM/bin/../lib/gcc/arm-none-eabi/15.2.0/thumb\libgcc.a(_arm_addsubdf3.o)
                              C:/devkitPro/devkitARM/bin/../lib/gcc/arm-none-eabi/15.2.0/../../../../arm-none-eabi/lib/thumb\libg.a(libc_a-svfprintf.o) (__aeabi_dsub)
C:/devkitPro/devkitARM/bin/../lib/gcc/arm-none-eabi/15.2.0/thumb\libgcc.a(_arm_muldivdf3.o)
                              C:/devkitPro/devkitARM/bin/../lib/gcc/arm-none-eabi/15.2.0/../../../../arm-none-eabi/lib/thumb\libg.a(libc_a-dtoa.o) (__aeabi_ddiv)
C:/devkitPro/devkitARM/bin/../lib/gcc/arm-none-eabi/15.2.0/thumb\libgcc.a(_arm_cmpdf2.o)
                              C:/devkitPro/devkitARM/bin/../lib/gcc/arm-none-eabi/15.2.0/../../../../arm-none-eabi/lib/thumb\libg.a(libc_a-svfprintf.o) (__aeabi_dcmpeq)
C:/devkitPro/devkitARM/bin/../lib/gcc/arm-none-eabi/15.2.0/thumb\libgcc.a(_arm_unorddf2.o)
                              C:/devkitPro/devkitARM/bin/../lib/gcc/arm-none-eabi/15.2.0/../../../../arm-none-eabi/lib/thumb\libg.a(libc_a-svfprintf.o) (__aeabi_dcmpun)
C:/devkitPro/devkitARM/bin/../lib/gcc/arm-none-eabi/15.2.0/thumb\libgcc.a(_arm_fixdfsi.o)
                              C:/devkitPro/devkitARM/bin/../lib/gcc/arm-none-eabi/15.2.0/../../../../arm-none-eabi/lib/thumb\libg.a(libc_a-svfprintf.o) (__aeabi_d2iz)
C:/devkitPro/devkitARM/bin/../lib/gcc/arm-none-eabi/15.2.0/thumb\libgcc.a(_arm_fixunsdfsi.o)
                              C:/devkitPro/devkitARM/bin/../lib/gcc/arm-none-eabi/15.2.0/../../../../arm-none-eabi/lib/thumb\libg.a(libc_a-strtod.o) (__aeabi_d2uiz)
C:/devkitPro/devkitARM/bin/../lib/gcc/arm-none-eabi/15.2.0/thumb\libgcc.a(_arm_truncdfsf2.o)
                              C:/devkitPro/devkitARM/bin/../lib/gcc/arm-none-eabi/15.2.0/../../../../arm-none-eabi/lib/thumb\libg.a(libc_a-svfscanf.o) (__aeabi_d2f)
C:/devkitPro/devkitARM/bin/../lib/gcc/arm-none-eabi/15.2.0/thumb\libgcc.a(_arm_unordsf2.o)
                              C:/devkitPro/devkitARM/bin/../lib/gcc/arm-none-eabi/15.2.0/../../../../arm-none-eabi/lib/thumb\libg.a(libc_a-strtod.o) (__aeabi_fcmpun)
C:/devkitPro/devkitARM/bin/../lib/gcc/arm-none-eabi/15.2.0/thumb\libgcc.a(_muldi3.o)
                              C:/devkitPro/devkitARM/bin/../lib/gcc/arm-none-eabi/15.2.0/../../../../arm-none-eabi/lib/thumb\libg.a(libc_a-strtoull.o) (__aeabi_lmul)
C:/devkitPro/devkitARM/bin/../lib/gcc/arm-none-eabi/15.2.0/thumb\libgcc.a(_fixdfdi.o)
                              C:/devkitPro/devkitARM/bin/../lib/gcc/arm-none-eabi/15.2.0/../../../../arm-none-eabi/lib/thumb\libg.a(libc_a-strtod.o) (__aeabi_d2lz)
C:/devkitPro/devkitARM/bin/../lib/gcc/arm-none-eabi/15.2.0/thumb\libgcc.a(_fixunsdfdi.o)
                              C:/devkitPro/devkitARM/bin/../lib/gcc/arm-none-eabi/15.2.0/thumb\libgcc.a(_fixdfdi.o) (__aeabi_d2ulz)

Discarded input sections

 .text          0x00000000        0x0 C:/devkitPro/devkitARM/bin/../lib/gcc/arm-none-eabi/15.2.0/thumb/crti.o
 .data          0x00000000        0x0 C:/devkitPro/devkitARM/bin/../lib/gcc/arm-none-eabi/15.2.0/thumb/crti.o
 .bss           0x00000000        0x0 C:/devkitPro/devkitARM/bin/../lib/gcc/arm-none-eabi/15.2.0/thumb/crti.o
 .text          0x00000000        0x0 C:/devkitPro/devkitARM/bin/../lib/gcc/arm-none-eabi/15.2.0/thumb/crtbegin.o
 .data          0x00000000        0x0 C:/devkitPro/devkitARM/bin/../lib/gcc/arm-none-eabi/15.2.0/thumb/crtbegin.o
 .bss           0x00000000        0x0 C:/devkitPro/devkitARM/bin/../lib/gcc/arm-none-eabi/15.2.0/thumb/crtbegin.o
 .rodata.all_implied_fbits
                0x00000000       0x24 C:/devkitPro/devkitARM/bin/../lib/gcc/arm-none-eabi/15.2.0/thumb/crtbegin.o
 .data.__dso_handle
                0x00000000        0x4 C:/devkitPro/devkitARM/bin/../lib/gcc/arm-none-eabi/15.2.0/thumb/crtbegin.o
 .data          0x00000000        0x0 main.o
 .text          0x00000000        0x0 C:/devkitPro/libnds/lib\libdswifi9.a(dswifi9.o)
 .data          0x00000000        0x0 C:/devkitPro/libnds/lib\libdswifi9.a(dswifi9.o)
 .bss           0x00000000        0x0 C:/devkitPro/libnds/lib\libdswifi9.a(dswifi9.o)
 .text.Wifi_DisconnectAP
                0x00000000       0x10 C:/devkitPro/libnds/lib\libdswifi9.a(dswifi9.o)
 .text.Wifi_GetIP
                0x00000000        0x4 C:/devkitPro/libnds/lib\libdswifi9.a(dswifi9.o)
 .text          0x00000000        0x0 C:/devkitPro/libnds/lib\libdswifi9.a(sgIP_DHCP.o)
 .data          0x00000000        0x0 C:/devkitPro/libnds/lib\libdswifi9.a(sgIP_DHCP.o)
 .bss           0x00000000        0x0 C:/devkitPro/libnds/lib\libdswifi9.a(sgIP_DHCP.o)
 .text.sgIP_DHCP_SetHostName
                0x00000000       0x28 C:/devkitPro/libnds/lib\libdswifi9.a(sgIP_DHCP.o)
 .text.sgIP_DHCP_IsDhcpIp
                0x00000000       0x1c C:/devkitPro/libnds/lib\libdswifi9.a(sgIP_DHCP.o)
 .text.sgIP_DHCP_Release
                0x00000000       0x90 C:/devkitPro/libnds/lib\libdswifi9.a(sgIP_DHCP.o)
 .text.sgIP_DHCP_Terminate
                0x00000000       0x58 C:/devkitPro/libnds/lib\libdswifi9.a(sgIP_DHCP.o)
 .text.gethostname
                0x00000000       0x58 C:/devkitPro/libnds/lib\libdswifi9.a(sgIP_DHCP.o)
 .text.sethostname
                0x00000000       0xa4 C:/devkitPro/libnds/lib\libdswifi9.a(sgIP_DHCP.o)
 .text.gethostid
                0x00000000       0x18 C:/devkitPro/libnds/lib\libdswifi9.a(sgIP_DHCP.o)
 .text          0x00000000        0x0 C:/devkitPro/libnds/lib\libdswifi9.a(sgIP_DNS.o)
 .data          0x00000000        0x0 C:/devkitPro/libnds/lib\libdswifi9.a(sgIP_DNS.o)
 .bss           0x00000000        0x0 C:/devkitPro/libnds/lib\libdswifi9.a(sgIP_DNS.o)
 .text.sgIP_DNS_FindDNSRecord
                0x00000000      0x20c C:/devkitPro/libnds/lib\libdswifi9.a(sgIP_DNS.o)
 .text.sgIP_DNS_GetUnusedRecord
                0x00000000      0x11c C:/devkitPro/libnds/lib\libdswifi9.a(sgIP_DNS.o)
 .text.sgIP_DNS_GenerateHostent
                0x00000000      0x120 C:/devkitPro/libnds/lib\libdswifi9.a(sgIP_DNS.o)
 .text.sgIP_DNS_CopyAliasAt
                0x00000000       0xa4 C:/devkitPro/libnds/lib\libdswifi9.a(sgIP_DNS.o)
 .text.sgIP_DNS_gethostbyname
                0x00000000      0x6bc C:/devkitPro/libnds/lib\libdswifi9.a(sgIP_DNS.o)
 .text.inet_addr
                0x00000000       0x24 C:/devkitPro/libnds/lib\libdswifi9.a(sgIP_DNS.o)
 .bss.responsedata
                0x00000000      0x200 C:/devkitPro/libnds/lib\libdswifi9.a(sgIP_DNS.o)
 .bss.querydata
                0x00000000      0x200 C:/devkitPro/libnds/lib\libdswifi9.a(sgIP_DNS.o)
 .bss.dnsrecord_hostent
                0x00000000       0x14 C:/devkitPro/libnds/lib\libdswifi9.a(sgIP_DNS.o)
 .bss.ipaddr_ip
                0x00000000        0x4 C:/devkitPro/libnds/lib\libdswifi9.a(sgIP_DNS.o)
 .bss.addr_list
                0x00000000       0x14 C:/devkitPro/libnds/lib\libdswifi9.a(sgIP_DNS.o)
 .bss.alias_list
                0x00000000       0x14 C:/devkitPro/libnds/lib\libdswifi9.a(sgIP_DNS.o)
 .bss.dnsrecord_return
                0x00000000      0x524 C:/devkitPro/libnds/lib\libdswifi9.a(sgIP_DNS.o)
 .bss.query_time_start
                0x00000000        0x4 C:/devkitPro/libnds/lib\libdswifi9.a(sgIP_DNS.o)
 .bss.last_id   0x00000000        0x4 C:/devkitPro/libnds/lib\libdswifi9.a(sgIP_DNS.o)
 .text          0x00000000        0x0 C:/devkitPro/libnds/lib\libdswifi9.a(sgIP_sockets.o)
 .data          0x00000000        0x0 C:/devkitPro/libnds/lib\libdswifi9.a(sgIP_sockets.o)
 .bss           0x00000000        0x0 C:/devkitPro/libnds/lib\libdswifi9.a(sgIP_sockets.o)
 .text.spawn_socket
                0x00000000       0xc8 C:/devkitPro/libnds/lib\libdswifi9.a(sgIP_sockets.o)
 .text.kill_socket
                0x00000000       0xa4 C:/devkitPro/libnds/lib\libdswifi9.a(sgIP_sockets.o)
 .text.listen   0x00000000       0xf0 C:/devkitPro/libnds/lib\libdswifi9.a(sgIP_sockets.o)
 .text.accept   0x00000000      0x1cc C:/devkitPro/libnds/lib\libdswifi9.a(sgIP_sockets.o)
 .text.getsockopt
                0x00000000        0x8 C:/devkitPro/libnds/lib\libdswifi9.a(sgIP_sockets.o)
 .text.getpeername
                0x00000000      0x1ac C:/devkitPro/libnds/lib\libdswifi9.a(sgIP_sockets.o)
 .text.getsockname
                0x00000000      0x184 C:/devkitPro/libnds/lib\libdswifi9.a(sgIP_sockets.o)
 .text.gethostbyname
                0x00000000        0x4 C:/devkitPro/libnds/lib\libdswifi9.a(sgIP_sockets.o)
 .text.select   0x00000000      0x428 C:/devkitPro/libnds/lib\libdswifi9.a(sgIP_sockets.o)
 .text          0x00000000        0x0 C:/devkitPro/libnds/lib\libdswifi9.a(wfc.o)
 .data          0x00000000        0x0 C:/devkitPro/libnds/lib\libdswifi9.a(wfc.o)
 .bss           0x00000000        0x0 C:/devkitPro/libnds/lib\libdswifi9.a(wfc.o)
 .text.wfcClearConnSlots
                0x00000000       0x14 C:/devkitPro/libnds/lib\libdswifi9.a(wfc.o)
 .text.wfcLoadSlot
                0x00000000       0x64 C:/devkitPro/libnds/lib\libdswifi9.a(wfc.o)
 .text.wfcGetNumSlots
                0x00000000       0x10 C:/devkitPro/libnds/lib\libdswifi9.a(wfc.o)
 .text.wfcBeginScan
                0x00000000       0x64 C:/devkitPro/libnds/lib\libdswifi9.a(wfc.o)
 .text.wfcGetScanBssList
                0x00000000       0x40 C:/devkitPro/libnds/lib\libdswifi9.a(wfc.o)
 .text.wfcDeriveWpaKey
                0x00000000       0x34 C:/devkitPro/libnds/lib\libdswifi9.a(wfc.o)
 .text.wfcBeginConnect
                0x00000000       0x6c C:/devkitPro/libnds/lib\libdswifi9.a(wfc.o)
 .text.wfcGetActiveSlot
                0x00000000       0x4c C:/devkitPro/libnds/lib\libdswifi9.a(wfc.o)
 .text          0x00000000        0x0 C:/devkitPro/libnds/lib\libdswifi9.a(wpa.twl.o)
 .data          0x00000000        0x0 C:/devkitPro/libnds/lib\libdswifi9.a(wpa.twl.o)
 .bss           0x00000000        0x0 C:/devkitPro/libnds/lib\libdswifi9.a(wpa.twl.o)
 .text._wpaHmacSha1
                0x00000000      0x124 C:/devkitPro/libnds/lib\libdswifi9.a(wpa.twl.o)
 .text._wpaDerivePmk
                0x00000000      0x144 C:/devkitPro/libnds/lib\libdswifi9.a(wpa.twl.o)
 .debug_info    0x00000000      0x6f5 C:/devkitPro/libnds/lib\libdswifi9.a(wpa.twl.o)
 .debug_abbrev  0x00000000      0x295 C:/devkitPro/libnds/lib\libdswifi9.a(wpa.twl.o)
 .debug_loclists
                0x00000000      0x2ec C:/devkitPro/libnds/lib\libdswifi9.a(wpa.twl.o)
 .debug_aranges
                0x00000000       0x28 C:/devkitPro/libnds/lib\libdswifi9.a(wpa.twl.o)
 .debug_rnglists
                0x00000000       0x62 C:/devkitPro/libnds/lib\libdswifi9.a(wpa.twl.o)
 .debug_line    0x00000000      0x3d8 C:/devkitPro/libnds/lib\libdswifi9.a(wpa.twl.o)
 .debug_str     0x00000000      0x2f8 C:/devkitPro/libnds/lib\libdswifi9.a(wpa.twl.o)
 .comment       0x00000000       0x24 C:/devkitPro/libnds/lib\libdswifi9.a(wpa.twl.o)
 .debug_frame   0x00000000       0x6c C:/devkitPro/libnds/lib\libdswifi9.a(wpa.twl.o)
 .text          0x00000000        0x0 C:/devkitPro/libnds/lib\libdswifi9.a(sgIP.o)
 .data          0x00000000        0x0 C:/devkitPro/libnds/lib\libdswifi9.a(sgIP.o)
 .bss           0x00000000        0x0 C:/devkitPro/libnds/lib\libdswifi9.a(sgIP.o)
 .text          0x00000000        0x0 C:/devkitPro/libnds/lib\libdswifi9.a(sgIP_memblock.o)
 .data          0x00000000        0x0 C:/devkitPro/libnds/lib\libdswifi9.a(sgIP_memblock.o)
 .bss           0x00000000        0x0 C:/devkitPro/libnds/lib\libdswifi9.a(sgIP_memblock.o)
 .text.sgIP_memblock_allocHW
                0x00000000       0x40 C:/devkitPro/libnds/lib\libdswifi9.a(sgIP_memblock.o)
 .text.sgIP_memblock_CopyBlock
                0x00000000        0x8 C:/devkitPro/libnds/lib\libdswifi9.a(sgIP_memblock.o)
 .text          0x00000000        0x0 C:/devkitPro/libnds/lib\libdswifi9.a(sgIP_Hub.o)
 .data          0x00000000        0x0 C:/devkitPro/libnds/lib\libdswifi9.a(sgIP_Hub.o)
 .bss           0x00000000        0x0 C:/devkitPro/libnds/lib\libdswifi9.a(sgIP_Hub.o)
 .text.sgIP_Hub_RemoveProtocolInterface
                0x00000000       0x30 C:/devkitPro/libnds/lib\libdswifi9.a(sgIP_Hub.o)
 .text.sgIP_Hub_RemoveHardwareInterface
                0x00000000       0x30 C:/devkitPro/libnds/lib\libdswifi9.a(sgIP_Hub.o)
 .text.sgIP_Hub_GetDefaultInterface
                0x00000000       0x18 C:/devkitPro/libnds/lib\libdswifi9.a(sgIP_Hub.o)
 .text          0x00000000        0x0 C:/devkitPro/libnds/lib\libdswifi9.a(sgIP_IP.o)
 .data          0x00000000        0x0 C:/devkitPro/libnds/lib\libdswifi9.a(sgIP_IP.o)
 .bss           0x00000000        0x0 C:/devkitPro/libnds/lib\libdswifi9.a(sgIP_IP.o)
 .text          0x00000000        0x0 C:/devkitPro/libnds/lib\libdswifi9.a(sgIP_ARP.o)
 .data          0x00000000        0x0 C:/devkitPro/libnds/lib\libdswifi9.a(sgIP_ARP.o)
 .bss           0x00000000        0x0 C:/devkitPro/libnds/lib\libdswifi9.a(sgIP_ARP.o)
 .text.sgIP_FindArpSlot
                0x00000000       0x58 C:/devkitPro/libnds/lib\libdswifi9.a(sgIP_ARP.o)
 .text.sgIP_is_broadcast_address
                0x00000000       0x18 C:/devkitPro/libnds/lib\libdswifi9.a(sgIP_ARP.o)
 .text.sgIP_ARP_Check_isok
                0x00000000        0x8 C:/devkitPro/libnds/lib\libdswifi9.a(sgIP_ARP.o)
 .text.sgIP_ARP_FlushInterface
                0x00000000       0x54 C:/devkitPro/libnds/lib\libdswifi9.a(sgIP_ARP.o)
 .text.sgIP_ARP_ProcessIPFrame
                0x00000000        0x8 C:/devkitPro/libnds/lib\libdswifi9.a(sgIP_ARP.o)
 .text          0x00000000        0x0 C:/devkitPro/libnds/lib\libdswifi9.a(sgIP_ICMP.o)
 .data          0x00000000        0x0 C:/devkitPro/libnds/lib\libdswifi9.a(sgIP_ICMP.o)
 .bss           0x00000000        0x0 C:/devkitPro/libnds/lib\libdswifi9.a(sgIP_ICMP.o)
 .text.sgIP_ICMP_Init
                0x00000000        0x4 C:/devkitPro/libnds/lib\libdswifi9.a(sgIP_ICMP.o)
 .text          0x00000000        0x0 C:/devkitPro/libnds/lib\libdswifi9.a(sgIP_TCP.o)
 .data          0x00000000        0x0 C:/devkitPro/libnds/lib\libdswifi9.a(sgIP_TCP.o)
 .bss           0x00000000        0x0 C:/devkitPro/libnds/lib\libdswifi9.a(sgIP_TCP.o)
 .text.sgIP_TCP_support_seqhash
                0x00000000       0x70 C:/devkitPro/libnds/lib\libdswifi9.a(sgIP_TCP.o)
 .text.sgIP_TCP_FixChecksum
                0x00000000        0xc C:/devkitPro/libnds/lib\libdswifi9.a(sgIP_TCP.o)
 .text.sgIP_TCP_Listen
                0x00000000       0xf8 C:/devkitPro/libnds/lib\libdswifi9.a(sgIP_TCP.o)
 .text.sgIP_TCP_Accept
                0x00000000      0x11c C:/devkitPro/libnds/lib\libdswifi9.a(sgIP_TCP.o)
 .text          0x00000000        0x0 C:/devkitPro/libnds/lib\libdswifi9.a(sgIP_UDP.o)
 .data          0x00000000        0x0 C:/devkitPro/libnds/lib\libdswifi9.a(sgIP_UDP.o)
 .bss           0x00000000        0x0 C:/devkitPro/libnds/lib\libdswifi9.a(sgIP_UDP.o)
 .text          0x00000000        0x0 C:/devkitPro/libnds/lib\libnds9.a(console.o)
 .data          0x00000000        0x0 C:/devkitPro/libnds/lib\libnds9.a(console.o)
 .bss           0x00000000        0x0 C:/devkitPro/libnds/lib\libnds9.a(console.o)
 .text.nocash_write
                0x00000000       0x1c C:/devkitPro/libnds/lib\libnds9.a(console.o)
 .text.consoleGetDefault
                0x00000000        0x8 C:/devkitPro/libnds/lib\libnds9.a(console.o)
 .text.consoleSelect
                0x00000000       0x10 C:/devkitPro/libnds/lib\libnds9.a(console.o)
 .text.consoleDebugInit
                0x00000000       0x4c C:/devkitPro/libnds/lib\libnds9.a(console.o)
 .text.consoleSetFont
                0x00000000       0x20 C:/devkitPro/libnds/lib\libnds9.a(console.o)
 .text.consoleSetWindow
                0x00000000       0x20 C:/devkitPro/libnds/lib\libnds9.a(console.o)
 .rodata.dotab_null
                0x00000000       0x80 C:/devkitPro/libnds/lib\libnds9.a(console.o)
 .rodata.dotab_nocash
                0x00000000       0x80 C:/devkitPro/libnds/lib\libnds9.a(console.o)
 .text          0x00000000        0x0 C:/devkitPro/libnds/lib\libnds9.a(keys.o)
 .data          0x00000000        0x0 C:/devkitPro/libnds/lib\libnds9.a(keys.o)
 .bss           0x00000000        0x0 C:/devkitPro/libnds/lib\libnds9.a(keys.o)
 .text.keysHeld
                0x00000000        0xc C:/devkitPro/libnds/lib\libnds9.a(keys.o)
 .text.keysDownRepeat
                0x00000000       0x10 C:/devkitPro/libnds/lib\libnds9.a(keys.o)
 .text.keysSetRepeat
                0x00000000       0x24 C:/devkitPro/libnds/lib\libnds9.a(keys.o)
 .text.keysUp   0x00000000       0x10 C:/devkitPro/libnds/lib\libnds9.a(keys.o)
 .text.keysCurrent
                0x00000000       0x1c C:/devkitPro/libnds/lib\libnds9.a(keys.o)
 .text          0x00000000        0x0 C:/devkitPro/libnds/lib\libnds9.a(default_font.bin.o)
 .data          0x00000000        0x0 C:/devkitPro/libnds/lib\libnds9.a(default_font.bin.o)
 .bss           0x00000000        0x0 C:/devkitPro/libnds/lib\libnds9.a(default_font.bin.o)
 .text          0x00000000        0x0 C:/devkitPro/libnds/lib\libnds9.a(background.o)
 .data          0x00000000        0x0 C:/devkitPro/libnds/lib\libnds9.a(background.o)
 .bss           0x00000000        0x0 C:/devkitPro/libnds/lib\libnds9.a(background.o)
 .text.bgIsText
                0x00000000        0xc C:/devkitPro/libnds/lib\libnds9.a(background.o)
 .text          0x00000000        0x0 C:/devkitPro/libnds/lib\libnds9.a(trig.o)
 .data          0x00000000        0x0 C:/devkitPro/libnds/lib\libnds9.a(trig.o)
 .bss           0x00000000        0x0 C:/devkitPro/libnds/lib\libnds9.a(trig.o)
 .text.asinComp
                0x00000000       0x20 C:/devkitPro/libnds/lib\libnds9.a(trig.o)
 .text.tanLutLookup
                0x00000000       0x30 C:/devkitPro/libnds/lib\libnds9.a(trig.o)
 .text.tanLerp  0x00000000       0xac C:/devkitPro/libnds/lib\libnds9.a(trig.o)
 .text.asinLerp
                0x00000000       0x98 C:/devkitPro/libnds/lib\libnds9.a(trig.o)
 .text.acosLerp
                0x00000000       0xa0 C:/devkitPro/libnds/lib\libnds9.a(trig.o)
 .text.atanComp
                0x00000000       0x20 C:/devkitPro/libnds/lib\libnds9.a(trig.o)
 .rodata.TAN_LUT
                0x00000000      0x204 C:/devkitPro/libnds/lib\libnds9.a(trig.o)
 .text          0x00000000        0x0 C:/devkitPro/calico/lib\libcalico_ds9.a(irq.o)
 .data          0x00000000        0x0 C:/devkitPro/calico/lib\libcalico_ds9.a(irq.o)
 .bss           0x00000000        0x0 C:/devkitPro/calico/lib\libcalico_ds9.a(irq.o)
 .text          0x00000000        0x0 C:/devkitPro/calico/lib\libcalico_ds9.a(tick.o)
 .data          0x00000000        0x0 C:/devkitPro/calico/lib\libcalico_ds9.a(tick.o)
 .bss           0x00000000        0x0 C:/devkitPro/calico/lib\libcalico_ds9.a(tick.o)
 .text          0x00000000        0x0 C:/devkitPro/calico/lib\libcalico_ds9.a(thread_cold.o)
 .data          0x00000000        0x0 C:/devkitPro/calico/lib\libcalico_ds9.a(thread_cold.o)
 .bss           0x00000000        0x0 C:/devkitPro/calico/lib\libcalico_ds9.a(thread_cold.o)
 .text.threadGetLocalStorageSize
                0x00000000       0x2c C:/devkitPro/calico/lib\libcalico_ds9.a(thread_cold.o)
 .text.threadFree
                0x00000000       0x74 C:/devkitPro/calico/lib\libcalico_ds9.a(thread_cold.o)
 .text.threadYield
                0x00000000       0xd4 C:/devkitPro/calico/lib\libcalico_ds9.a(thread_cold.o)
 .text.threadTimerStartTicks
                0x00000000       0x14 C:/devkitPro/calico/lib\libcalico_ds9.a(thread_cold.o)
 .text.threadTimerWait
                0x00000000       0x38 C:/devkitPro/calico/lib\libcalico_ds9.a(thread_cold.o)
 .text          0x00000000        0x0 C:/devkitPro/calico/lib\libcalico_ds9.a(thread_hot.32.o)
 .data          0x00000000        0x0 C:/devkitPro/calico/lib\libcalico_ds9.a(thread_hot.32.o)
 .bss           0x00000000        0x0 C:/devkitPro/calico/lib\libcalico_ds9.a(thread_hot.32.o)
 .text.threadUnblock
                0x00000000      0x1d4 C:/devkitPro/calico/lib\libcalico_ds9.a(thread_hot.32.o)
 .text.threadUnblockOneByMask
                0x00000000       0xc4 C:/devkitPro/calico/lib\libcalico_ds9.a(thread_hot.32.o)
 .text          0x00000000        0x0 C:/devkitPro/calico/lib\libcalico_ds9.a(mutex.o)
 .data          0x00000000        0x0 C:/devkitPro/calico/lib\libcalico_ds9.a(mutex.o)
 .bss           0x00000000        0x0 C:/devkitPro/calico/lib\libcalico_ds9.a(mutex.o)
 .text.condvarSignal
                0x00000000       0x10 C:/devkitPro/calico/lib\libcalico_ds9.a(mutex.o)
 .text.condvarBroadcast
                0x00000000       0x10 C:/devkitPro/calico/lib\libcalico_ds9.a(mutex.o)
 .text.condvarWait
                0x00000000       0x84 C:/devkitPro/calico/lib\libcalico_ds9.a(mutex.o)
 .bss.s_cvWaitQueue
                0x00000000        0x8 C:/devkitPro/calico/lib\libcalico_ds9.a(mutex.o)
 .text          0x00000000        0x0 C:/devkitPro/calico/lib\libcalico_ds9.a(mailbox.o)
 .data          0x00000000        0x0 C:/devkitPro/calico/lib\libcalico_ds9.a(mailbox.o)
 .bss           0x00000000        0x0 C:/devkitPro/calico/lib\libcalico_ds9.a(mailbox.o)
 .text.mailboxTryRecv
                0x00000000       0x84 C:/devkitPro/calico/lib\libcalico_ds9.a(mailbox.o)
 .text          0x00000000        0x0 C:/devkitPro/calico/lib\libcalico_ds9.a(newlib_syscalls.o)
 .data          0x00000000        0x0 C:/devkitPro/calico/lib\libcalico_ds9.a(newlib_syscalls.o)
 .bss           0x00000000        0x0 C:/devkitPro/calico/lib\libcalico_ds9.a(newlib_syscalls.o)
 .text.__syscall_gettod_r
                0x00000000       0x30 C:/devkitPro/calico/lib\libcalico_ds9.a(newlib_syscalls.o)
 .text.__syscall_nanosleep
                0x00000000       0x58 C:/devkitPro/calico/lib\libcalico_ds9.a(newlib_syscalls.o)
 .text.__syscall_lock_init
                0x00000000        0xc C:/devkitPro/calico/lib\libcalico_ds9.a(newlib_syscalls.o)
 .text.__syscall_lock_init_recursive
                0x00000000       0x14 C:/devkitPro/calico/lib\libcalico_ds9.a(newlib_syscalls.o)
 .text.__syscall_cond_signal
                0x00000000       0x10 C:/devkitPro/calico/lib\libcalico_ds9.a(newlib_syscalls.o)
 .text.__syscall_cond_broadcast
                0x00000000       0x10 C:/devkitPro/calico/lib\libcalico_ds9.a(newlib_syscalls.o)
 .text.__syscall_cond_wait
                0x00000000       0x24 C:/devkitPro/calico/lib\libcalico_ds9.a(newlib_syscalls.o)
 .text.__syscall_cond_wait_recursive
                0x00000000       0x44 C:/devkitPro/calico/lib\libcalico_ds9.a(newlib_syscalls.o)
 .text.__syscall_thread_create
                0x00000000       0xc8 C:/devkitPro/calico/lib\libcalico_ds9.a(newlib_syscalls.o)
 .text.__syscall_thread_join
                0x00000000       0x38 C:/devkitPro/calico/lib\libcalico_ds9.a(newlib_syscalls.o)
 .text.__syscall_thread_exit
                0x00000000        0x8 C:/devkitPro/calico/lib\libcalico_ds9.a(newlib_syscalls.o)
 .text.__syscall_thread_self
                0x00000000       0x10 C:/devkitPro/calico/lib\libcalico_ds9.a(newlib_syscalls.o)
 .rodata.__newlib_syscalls
                0x00000000        0x4 C:/devkitPro/calico/lib\libcalico_ds9.a(newlib_syscalls.o)
 .text          0x00000000        0x0 C:/devkitPro/calico/lib\libcalico_ds9.a(arm-copy-fill.32.o)
 .data          0x00000000        0x0 C:/devkitPro/calico/lib\libcalico_ds9.a(arm-copy-fill.32.o)
 .bss           0x00000000        0x0 C:/devkitPro/calico/lib\libcalico_ds9.a(arm-copy-fill.32.o)
 .text          0x00000000        0x0 C:/devkitPro/calico/lib\libcalico_ds9.a(arm-context.32.o)
 .data          0x00000000        0x0 C:/devkitPro/calico/lib\libcalico_ds9.a(arm-context.32.o)
 .bss           0x00000000        0x0 C:/devkitPro/calico/lib\libcalico_ds9.a(arm-context.32.o)
 .text          0x00000000        0x0 C:/devkitPro/calico/lib\libcalico_ds9.a(arm-shims.32.o)
 .data          0x00000000        0x0 C:/devkitPro/calico/lib\libcalico_ds9.a(arm-shims.32.o)
 .bss           0x00000000        0x0 C:/devkitPro/calico/lib\libcalico_ds9.a(arm-shims.32.o)
 .text.armGetCpsr
                0x00000000        0x8 C:/devkitPro/calico/lib\libcalico_ds9.a(arm-shims.32.o)
 .text.armSetCpsrC
                0x00000000        0x8 C:/devkitPro/calico/lib\libcalico_ds9.a(arm-shims.32.o)
 .text.armGetSpsr
                0x00000000        0x8 C:/devkitPro/calico/lib\libcalico_ds9.a(arm-shims.32.o)
 .text.armSetSpsr
                0x00000000        0x8 C:/devkitPro/calico/lib\libcalico_ds9.a(arm-shims.32.o)
 .text.armSwapWord
                0x00000000        0x8 C:/devkitPro/calico/lib\libcalico_ds9.a(arm-shims.32.o)
 .text.armSwapByte
                0x00000000        0xc C:/devkitPro/calico/lib\libcalico_ds9.a(arm-shims.32.o)
 .text.armGetCp15Cr
                0x00000000        0x8 C:/devkitPro/calico/lib\libcalico_ds9.a(arm-shims.32.o)
 .text.armSetCp15Cr
                0x00000000        0x8 C:/devkitPro/calico/lib\libcalico_ds9.a(arm-shims.32.o)
 .text.armIrqLockByPsr
                0x00000000       0x14 C:/devkitPro/calico/lib\libcalico_ds9.a(arm-shims.32.o)
 .text.armIrqUnlockByPsr
                0x00000000       0x14 C:/devkitPro/calico/lib\libcalico_ds9.a(arm-shims.32.o)
 .text          0x00000000        0x0 C:/devkitPro/calico/lib\libcalico_ds9.a(startup.crt0.o)
 .data          0x00000000        0x0 C:/devkitPro/calico/lib\libcalico_ds9.a(startup.crt0.o)
 .bss           0x00000000        0x0 C:/devkitPro/calico/lib\libcalico_ds9.a(startup.crt0.o)
 .text          0x00000000        0x0 C:/devkitPro/calico/lib\libcalico_ds9.a(utils.crt0.o)
 .data          0x00000000        0x0 C:/devkitPro/calico/lib\libcalico_ds9.a(utils.crt0.o)
 .bss           0x00000000        0x0 C:/devkitPro/calico/lib\libcalico_ds9.a(utils.crt0.o)
 .text          0x00000000        0x0 C:/devkitPro/calico/lib\libcalico_ds9.a(bios.o)
 .data          0x00000000        0x0 C:/devkitPro/calico/lib\libcalico_ds9.a(bios.o)
 .bss           0x00000000        0x0 C:/devkitPro/calico/lib\libcalico_ds9.a(bios.o)
 .text.svcHalt  0x00000000        0x4 C:/devkitPro/calico/lib\libcalico_ds9.a(bios.o)
 .text.svcDivMod
                0x00000000        0x4 C:/devkitPro/calico/lib\libcalico_ds9.a(bios.o)
 .text.svcCpuSet
                0x00000000        0x4 C:/devkitPro/calico/lib\libcalico_ds9.a(bios.o)
 .text.svcSqrt  0x00000000        0x4 C:/devkitPro/calico/lib\libcalico_ds9.a(bios.o)
 .text.svcBitUnpack
                0x00000000        0x4 C:/devkitPro/calico/lib\libcalico_ds9.a(bios.o)
 .text.svcLZ77UncompWram
                0x00000000        0x4 C:/devkitPro/calico/lib\libcalico_ds9.a(bios.o)
 .text.svcHuffUncompCallback
                0x00000000        0x4 C:/devkitPro/calico/lib\libcalico_ds9.a(bios.o)
 .text.svcRLUncompWram
                0x00000000        0x4 C:/devkitPro/calico/lib\libcalico_ds9.a(bios.o)
 .text.svcRLUncompVramCallback
                0x00000000        0x4 C:/devkitPro/calico/lib\libcalico_ds9.a(bios.o)
 .text.svcDiff8bitUnfilterWram
                0x00000000        0x4 C:/devkitPro/calico/lib\libcalico_ds9.a(bios.o)
 .text.svcDiff16bitUnfilter
                0x00000000        0x4 C:/devkitPro/calico/lib\libcalico_ds9.a(bios.o)
 .text.svcCustomPost
                0x00000000        0x4 C:/devkitPro/calico/lib\libcalico_ds9.a(bios.o)
 .text.svcLZ77UncompVramCallback
                0x00000000       0x18 C:/devkitPro/calico/lib\libcalico_ds9.a(bios.o)
 .text          0x00000000        0x0 C:/devkitPro/calico/lib\libcalico_ds9.a(bios.twl.o)
 .data          0x00000000        0x0 C:/devkitPro/calico/lib\libcalico_ds9.a(bios.twl.o)
 .bss           0x00000000        0x0 C:/devkitPro/calico/lib\libcalico_ds9.a(bios.twl.o)
 .text.svcLZ77UncompWramCallbackTWL
                0x00000000        0x4 C:/devkitPro/calico/lib\libcalico_ds9.a(bios.twl.o)
 .text.svcRsaHeapInitTWL
                0x00000000        0x4 C:/devkitPro/calico/lib\libcalico_ds9.a(bios.twl.o)
 .text.svcRsaDecryptRawTWL
                0x00000000        0x4 C:/devkitPro/calico/lib\libcalico_ds9.a(bios.twl.o)
 .text.svcRsaDecryptUnpadTWL
                0x00000000        0x4 C:/devkitPro/calico/lib\libcalico_ds9.a(bios.twl.o)
 .text.svcRsaDecryptDerSha1TWL
                0x00000000        0x4 C:/devkitPro/calico/lib\libcalico_ds9.a(bios.twl.o)
 .text.svcSha1InitTWL
                0x00000000        0x4 C:/devkitPro/calico/lib\libcalico_ds9.a(bios.twl.o)
 .text.svcSha1UpdateTWL
                0x00000000        0x4 C:/devkitPro/calico/lib\libcalico_ds9.a(bios.twl.o)
 .text.svcSha1DigestTWL
                0x00000000        0x4 C:/devkitPro/calico/lib\libcalico_ds9.a(bios.twl.o)
 .text.svcSha1CalcTWL
                0x00000000        0x4 C:/devkitPro/calico/lib\libcalico_ds9.a(bios.twl.o)
 .text.svcSha1VerifyTWL
                0x00000000        0x4 C:/devkitPro/calico/lib\libcalico_ds9.a(bios.twl.o)
 .text.svcSha1RandomTWL
                0x00000000        0x4 C:/devkitPro/calico/lib\libcalico_ds9.a(bios.twl.o)
 .debug_line    0x00000000       0xdf C:/devkitPro/calico/lib\libcalico_ds9.a(bios.twl.o)
 .debug_line_str
                0x00000000       0x7c C:/devkitPro/calico/lib\libcalico_ds9.a(bios.twl.o)
 .debug_info    0x00000000       0xa9 C:/devkitPro/calico/lib\libcalico_ds9.a(bios.twl.o)
 .debug_abbrev  0x00000000       0x26 C:/devkitPro/calico/lib\libcalico_ds9.a(bios.twl.o)
 .debug_aranges
                0x00000000       0x70 C:/devkitPro/calico/lib\libcalico_ds9.a(bios.twl.o)
 .debug_str     0x00000000      0x15b C:/devkitPro/calico/lib\libcalico_ds9.a(bios.twl.o)
 .debug_rnglists
                0x00000000       0x4f C:/devkitPro/calico/lib\libcalico_ds9.a(bios.twl.o)
 .debug_frame   0x00000000       0xc0 C:/devkitPro/calico/lib\libcalico_ds9.a(bios.twl.o)
 .text          0x00000000        0x0 C:/devkitPro/calico/lib\libcalico_ds9.a(pxi.o)
 .data          0x00000000        0x0 C:/devkitPro/calico/lib\libcalico_ds9.a(pxi.o)
 .bss           0x00000000        0x0 C:/devkitPro/calico/lib\libcalico_ds9.a(pxi.o)
 .text          0x00000000        0x0 C:/devkitPro/calico/lib\libcalico_ds9.a(keypad.o)
 .data          0x00000000        0x0 C:/devkitPro/calico/lib\libcalico_ds9.a(keypad.o)
 .bss           0x00000000        0x0 C:/devkitPro/calico/lib\libcalico_ds9.a(keypad.o)
 .text          0x00000000        0x0 C:/devkitPro/calico/lib\libcalico_ds9.a(netbuf.o)
 .data          0x00000000        0x0 C:/devkitPro/calico/lib\libcalico_ds9.a(netbuf.o)
 .bss           0x00000000        0x0 C:/devkitPro/calico/lib\libcalico_ds9.a(netbuf.o)
 .text          0x00000000        0x0 C:/devkitPro/calico/lib\libcalico_ds9.a(bootstub_arm9.o)
 .data          0x00000000        0x0 C:/devkitPro/calico/lib\libcalico_ds9.a(bootstub_arm9.o)
 .bss           0x00000000        0x0 C:/devkitPro/calico/lib\libcalico_ds9.a(bootstub_arm9.o)
 .rodata.ref.__newlib_syscalls
                0x00000000        0x4 C:/devkitPro/calico/lib\libcalico_ds9.a(bootstub_arm9.o)
 .text          0x00000000        0x0 C:/devkitPro/calico/lib\libcalico_ds9.a(mpu_setup.crt0.o)
 .data          0x00000000        0x0 C:/devkitPro/calico/lib\libcalico_ds9.a(mpu_setup.crt0.o)
 .bss           0x00000000        0x0 C:/devkitPro/calico/lib\libcalico_ds9.a(mpu_setup.crt0.o)
 .text          0x00000000        0x0 C:/devkitPro/calico/lib\libcalico_ds9.a(sys_startup.o)
 .data          0x00000000        0x0 C:/devkitPro/calico/lib\libcalico_ds9.a(sys_startup.o)
 .bss           0x00000000        0x0 C:/devkitPro/calico/lib\libcalico_ds9.a(sys_startup.o)
 .text          0x00000000        0x0 C:/devkitPro/calico/lib\libcalico_ds9.a(excpt_handler.32.o)
 .data          0x00000000        0x0 C:/devkitPro/calico/lib\libcalico_ds9.a(excpt_handler.32.o)
 .bss           0x00000000        0x0 C:/devkitPro/calico/lib\libcalico_ds9.a(excpt_handler.32.o)
 .text          0x00000000        0x0 C:/devkitPro/calico/lib\libcalico_ds9.a(pm_arm9.o)
 .data          0x00000000        0x0 C:/devkitPro/calico/lib\libcalico_ds9.a(pm_arm9.o)
 .bss           0x00000000        0x0 C:/devkitPro/calico/lib\libcalico_ds9.a(pm_arm9.o)
 .text.pmGetBatteryState
                0x00000000       0x20 C:/devkitPro/calico/lib\libcalico_ds9.a(pm_arm9.o)
 .text.pmSetPowerLed
                0x00000000       0x2c C:/devkitPro/calico/lib\libcalico_ds9.a(pm_arm9.o)
 .text.pmMicSetAmp
                0x00000000       0x38 C:/devkitPro/calico/lib\libcalico_ds9.a(pm_arm9.o)
 .text.scfgSetMcPower
                0x00000000       0x34 C:/devkitPro/calico/lib\libcalico_ds9.a(pm_arm9.o)
 .text          0x00000000        0x0 C:/devkitPro/calico/lib\libcalico_ds9.a(touch.o)
 .data          0x00000000        0x0 C:/devkitPro/calico/lib\libcalico_ds9.a(touch.o)
 .bss           0x00000000        0x0 C:/devkitPro/calico/lib\libcalico_ds9.a(touch.o)
 .text          0x00000000        0x0 C:/devkitPro/calico/lib\libcalico_ds9.a(wlmgr.o)
 .data          0x00000000        0x0 C:/devkitPro/calico/lib\libcalico_ds9.a(wlmgr.o)
 .bss           0x00000000        0x0 C:/devkitPro/calico/lib\libcalico_ds9.a(wlmgr.o)
 .text.wlmgrGetRssi
                0x00000000       0x38 C:/devkitPro/calico/lib\libcalico_ds9.a(wlmgr.o)
 .text.wlmgrLastCmdFailed
                0x00000000       0x10 C:/devkitPro/calico/lib\libcalico_ds9.a(wlmgr.o)
 .text.wlmgrStop
                0x00000000       0x18 C:/devkitPro/calico/lib\libcalico_ds9.a(wlmgr.o)
 .text          0x00000000        0x0 C:/devkitPro/calico/lib\libcalico_ds9.a(arm-cache.32.o)
 .data          0x00000000        0x0 C:/devkitPro/calico/lib\libcalico_ds9.a(arm-cache.32.o)
 .bss           0x00000000        0x0 C:/devkitPro/calico/lib\libcalico_ds9.a(arm-cache.32.o)
 .text.armICacheInvalidate
                0x00000000       0x1c C:/devkitPro/calico/lib\libcalico_ds9.a(arm-cache.32.o)
 .text          0x00000000        0x0 C:/devkitPro/calico/lib\libcalico_ds9.a(irq_handler.32.o)
 .data          0x00000000        0x0 C:/devkitPro/calico/lib\libcalico_ds9.a(irq_handler.32.o)
 .bss           0x00000000        0x0 C:/devkitPro/calico/lib\libcalico_ds9.a(irq_handler.32.o)
 .text          0x00000000        0x0 C:/devkitPro/calico/lib\libcalico_ds9.a(smutex.32.o)
 .data          0x00000000        0x0 C:/devkitPro/calico/lib\libcalico_ds9.a(smutex.32.o)
 .bss           0x00000000        0x0 C:/devkitPro/calico/lib\libcalico_ds9.a(smutex.32.o)
 .text.smutexTryLock
                0x00000000       0x8c C:/devkitPro/calico/lib\libcalico_ds9.a(smutex.32.o)
 .text          0x00000000        0x0 C:/devkitPro/calico/lib\libcalico_ds9.a(pm.o)
 .data          0x00000000        0x0 C:/devkitPro/calico/lib\libcalico_ds9.a(pm.o)
 .bss           0x00000000        0x0 C:/devkitPro/calico/lib\libcalico_ds9.a(pm.o)
 .text.pmAddEventHandler
                0x00000000       0x3c C:/devkitPro/calico/lib\libcalico_ds9.a(pm.o)
 .text.pmRemoveEventHandler
                0x00000000       0x50 C:/devkitPro/calico/lib\libcalico_ds9.a(pm.o)
 .text.pmShouldReset
                0x00000000       0x18 C:/devkitPro/calico/lib\libcalico_ds9.a(pm.o)
 .text.pmPrepareToReset
                0x00000000       0x2c C:/devkitPro/calico/lib\libcalico_ds9.a(pm.o)
 .text.pmIsSleepAllowed
                0x00000000       0x18 C:/devkitPro/calico/lib\libcalico_ds9.a(pm.o)
 .text.pmSetSleepAllowed
                0x00000000       0x3c C:/devkitPro/calico/lib\libcalico_ds9.a(pm.o)
 .text.pmHasResetJumpTarget
                0x00000000       0x4c C:/devkitPro/calico/lib\libcalico_ds9.a(pm.o)
 .text.pmClearResetJumpTarget
                0x00000000       0x30 C:/devkitPro/calico/lib\libcalico_ds9.a(pm.o)
 .text.pmEnterSleep
                0x00000000       0xcc C:/devkitPro/calico/lib\libcalico_ds9.a(pm.o)
 .text.pmMainLoop
                0x00000000       0x74 C:/devkitPro/calico/lib\libcalico_ds9.a(pm.o)
 .data          0x00000000        0x0 C:/devkitPro/devkitARM/bin/../lib/gcc/arm-none-eabi/15.2.0/thumb\libgcc.a(_divsi3.o)
 .bss           0x00000000        0x0 C:/devkitPro/devkitARM/bin/../lib/gcc/arm-none-eabi/15.2.0/thumb\libgcc.a(_divsi3.o)
 .data          0x00000000        0x0 C:/devkitPro/devkitARM/bin/../lib/gcc/arm-none-eabi/15.2.0/thumb\libgcc.a(_dvmd_tls.o)
 .bss           0x00000000        0x0 C:/devkitPro/devkitARM/bin/../lib/gcc/arm-none-eabi/15.2.0/thumb\libgcc.a(_dvmd_tls.o)
 .data          0x00000000        0x0 C:/devkitPro/devkitARM/bin/../lib/gcc/arm-none-eabi/15.2.0/thumb\libgcc.a(_arm_cmpsf2.o)
 .bss           0x00000000        0x0 C:/devkitPro/devkitARM/bin/../lib/gcc/arm-none-eabi/15.2.0/thumb\libgcc.a(_arm_cmpsf2.o)
 .data          0x00000000        0x0 C:/devkitPro/devkitARM/bin/../lib/gcc/arm-none-eabi/15.2.0/thumb\libgcc.a(_aeabi_uldivmod.o)
 .bss           0x00000000        0x0 C:/devkitPro/devkitARM/bin/../lib/gcc/arm-none-eabi/15.2.0/thumb\libgcc.a(_aeabi_uldivmod.o)
 .text          0x00000000        0x4 C:/devkitPro/devkitARM/bin/../lib/gcc/arm-none-eabi/15.2.0/thumb\libgcc.a(_sync_none.o)
 .data          0x00000000        0x0 C:/devkitPro/devkitARM/bin/../lib/gcc/arm-none-eabi/15.2.0/thumb\libgcc.a(_sync_none.o)
 .bss           0x00000000        0x0 C:/devkitPro/devkitARM/bin/../lib/gcc/arm-none-eabi/15.2.0/thumb\libgcc.a(_sync_none.o)
 .debug_line    0x00000000       0x4a C:/devkitPro/devkitARM/bin/../lib/gcc/arm-none-eabi/15.2.0/thumb\libgcc.a(_sync_none.o)
 .debug_line_str
                0x00000000       0xcd C:/devkitPro/devkitARM/bin/../lib/gcc/arm-none-eabi/15.2.0/thumb\libgcc.a(_sync_none.o)
 .debug_info    0x00000000       0x31 C:/devkitPro/devkitARM/bin/../lib/gcc/arm-none-eabi/15.2.0/thumb\libgcc.a(_sync_none.o)
 .debug_abbrev  0x00000000       0x28 C:/devkitPro/devkitARM/bin/../lib/gcc/arm-none-eabi/15.2.0/thumb\libgcc.a(_sync_none.o)
 .debug_aranges
                0x00000000       0x20 C:/devkitPro/devkitARM/bin/../lib/gcc/arm-none-eabi/15.2.0/thumb\libgcc.a(_sync_none.o)
 .debug_str     0x00000000       0xf3 C:/devkitPro/devkitARM/bin/../lib/gcc/arm-none-eabi/15.2.0/thumb\libgcc.a(_sync_none.o)
 .text          0x00000000        0x0 C:/devkitPro/devkitARM/bin/../lib/gcc/arm-none-eabi/15.2.0/thumb\libgcc.a(_udivmoddi4.o)
 .data          0x00000000        0x0 C:/devkitPro/devkitARM/bin/../lib/gcc/arm-none-eabi/15.2.0/thumb\libgcc.a(_udivmoddi4.o)
 .bss           0x00000000        0x0 C:/devkitPro/devkitARM/bin/../lib/gcc/arm-none-eabi/15.2.0/thumb\libgcc.a(_udivmoddi4.o)
 .data          0x00000000        0x0 C:/devkitPro/devkitARM/bin/../lib/gcc/arm-none-eabi/15.2.0/thumb\libgcc.a(_clzdi2.o)
 .bss           0x00000000        0x0 C:/devkitPro/devkitARM/bin/../lib/gcc/arm-none-eabi/15.2.0/thumb\libgcc.a(_clzdi2.o)
 .data          0x00000000        0x0 C:/devkitPro/devkitARM/bin/../lib/gcc/arm-none-eabi/15.2.0/thumb\libgcc.a(_clzsi2.o)
 .bss           0x00000000        0x0 C:/devkitPro/devkitARM/bin/../lib/gcc/arm-none-eabi/15.2.0/thumb\libgcc.a(_clzsi2.o)
 .text          0x00000000        0x0 C:/devkitPro/devkitARM/bin/../lib/gcc/arm-none-eabi/15.2.0/../../../../arm-none-eabi/lib/thumb\libg.a(libc_a-strchr.o)
 .data          0x00000000        0x0 C:/devkitPro/devkitARM/bin/../lib/gcc/arm-none-eabi/15.2.0/../../../../arm-none-eabi/lib/thumb\libg.a(libc_a-strchr.o)
 .bss           0x00000000        0x0 C:/devkitPro/devkitARM/bin/../lib/gcc/arm-none-eabi/15.2.0/../../../../arm-none-eabi/lib/thumb\libg.a(libc_a-strchr.o)
 .text          0x00000000        0x0 C:/devkitPro/devkitARM/bin/../lib/gcc/arm-none-eabi/15.2.0/../../../../arm-none-eabi/lib/thumb\libg.a(libc_a-memmove.o)
 .data          0x00000000        0x0 C:/devkitPro/devkitARM/bin/../lib/gcc/arm-none-eabi/15.2.0/../../../../arm-none-eabi/lib/thumb\libg.a(libc_a-memmove.o)
 .bss           0x00000000        0x0 C:/devkitPro/devkitARM/bin/../lib/gcc/arm-none-eabi/15.2.0/../../../../arm-none-eabi/lib/thumb\libg.a(libc_a-memmove.o)
 .text          0x00000000        0x0 C:/devkitPro/devkitARM/bin/../lib/gcc/arm-none-eabi/15.2.0/../../../../arm-none-eabi/lib/thumb\libg.a(libc_a-strlen.o)
 .data          0x00000000        0x0 C:/devkitPro/devkitARM/bin/../lib/gcc/arm-none-eabi/15.2.0/../../../../arm-none-eabi/lib/thumb\libg.a(libc_a-strlen.o)
 .bss           0x00000000        0x0 C:/devkitPro/devkitARM/bin/../lib/gcc/arm-none-eabi/15.2.0/../../../../arm-none-eabi/lib/thumb\libg.a(libc_a-strlen.o)
 .text          0x00000000        0x0 C:/devkitPro/devkitARM/bin/../lib/gcc/arm-none-eabi/15.2.0/../../../../arm-none-eabi/lib/thumb\libg.a(libc_a-sprintf.o)
 .data          0x00000000        0x0 C:/devkitPro/devkitARM/bin/../lib/gcc/arm-none-eabi/15.2.0/../../../../arm-none-eabi/lib/thumb\libg.a(libc_a-sprintf.o)
 .bss           0x00000000        0x0 C:/devkitPro/devkitARM/bin/../lib/gcc/arm-none-eabi/15.2.0/../../../../arm-none-eabi/lib/thumb\libg.a(libc_a-sprintf.o)
 .text._sprintf_r
                0x00000000       0x3c C:/devkitPro/devkitARM/bin/../lib/gcc/arm-none-eabi/15.2.0/../../../../arm-none-eabi/lib/thumb\libg.a(libc_a-sprintf.o)
 .text          0x00000000        0x0 C:/devkitPro/devkitARM/bin/../lib/gcc/arm-none-eabi/15.2.0/../../../../arm-none-eabi/lib/thumb\libg.a(libc_a-init.o)
 .data          0x00000000        0x0 C:/devkitPro/devkitARM/bin/../lib/gcc/arm-none-eabi/15.2.0/../../../../arm-none-eabi/lib/thumb\libg.a(libc_a-init.o)
 .bss           0x00000000        0x0 C:/devkitPro/devkitARM/bin/../lib/gcc/arm-none-eabi/15.2.0/../../../../arm-none-eabi/lib/thumb\libg.a(libc_a-init.o)
 .text          0x00000000        0x0 C:/devkitPro/devkitARM/bin/../lib/gcc/arm-none-eabi/15.2.0/../../../../arm-none-eabi/lib/thumb\libg.a(libc_a-bsearch.o)
 .data          0x00000000        0x0 C:/devkitPro/devkitARM/bin/../lib/gcc/arm-none-eabi/15.2.0/../../../../arm-none-eabi/lib/thumb\libg.a(libc_a-bsearch.o)
 .bss           0x00000000        0x0 C:/devkitPro/devkitARM/bin/../lib/gcc/arm-none-eabi/15.2.0/../../../../arm-none-eabi/lib/thumb\libg.a(libc_a-bsearch.o)
 .text.bsearch  0x00000000       0x58 C:/devkitPro/devkitARM/bin/../lib/gcc/arm-none-eabi/15.2.0/../../../../arm-none-eabi/lib/thumb\libg.a(libc_a-bsearch.o)
 .text          0x00000000        0x0 C:/devkitPro/devkitARM/bin/../lib/gcc/arm-none-eabi/15.2.0/../../../../arm-none-eabi/lib/thumb\libg.a(libc_a-siscanf.o)
 .data          0x00000000        0x0 C:/devkitPro/devkitARM/bin/../lib/gcc/arm-none-eabi/15.2.0/../../../../arm-none-eabi/lib/thumb\libg.a(libc_a-siscanf.o)
 .bss           0x00000000        0x0 C:/devkitPro/devkitARM/bin/../lib/gcc/arm-none-eabi/15.2.0/../../../../arm-none-eabi/lib/thumb\libg.a(libc_a-siscanf.o)
 .text._siscanf_r
                0x00000000       0x54 C:/devkitPro/devkitARM/bin/../lib/gcc/arm-none-eabi/15.2.0/../../../../arm-none-eabi/lib/thumb\libg.a(libc_a-siscanf.o)
 .text          0x00000000        0x0 C:/devkitPro/devkitARM/bin/../lib/gcc/arm-none-eabi/15.2.0/../../../../arm-none-eabi/lib/thumb\libg.a(libc_a-mallocr.o)
 .data          0x00000000        0x0 C:/devkitPro/devkitARM/bin/../lib/gcc/arm-none-eabi/15.2.0/../../../../arm-none-eabi/lib/thumb\libg.a(libc_a-mallocr.o)
 .bss           0x00000000        0x0 C:/devkitPro/devkitARM/bin/../lib/gcc/arm-none-eabi/15.2.0/../../../../arm-none-eabi/lib/thumb\libg.a(libc_a-mallocr.o)
 .text          0x00000000        0x0 C:/devkitPro/devkitARM/bin/../lib/gcc/arm-none-eabi/15.2.0/../../../../arm-none-eabi/lib/thumb\libg.a(libc_a-freer.o)
 .data          0x00000000        0x0 C:/devkitPro/devkitARM/bin/../lib/gcc/arm-none-eabi/15.2.0/../../../../arm-none-eabi/lib/thumb\libg.a(libc_a-freer.o)
 .bss           0x00000000        0x0 C:/devkitPro/devkitARM/bin/../lib/gcc/arm-none-eabi/15.2.0/../../../../arm-none-eabi/lib/thumb\libg.a(libc_a-freer.o)
 .text          0x00000000        0x0 C:/devkitPro/devkitARM/bin/../lib/gcc/arm-none-eabi/15.2.0/../../../../arm-none-eabi/lib/thumb\libg.a(libc_a-strtok.o)
 .data          0x00000000        0x0 C:/devkitPro/devkitARM/bin/../lib/gcc/arm-none-eabi/15.2.0/../../../../arm-none-eabi/lib/thumb\libg.a(libc_a-strtok.o)
 .bss           0x00000000        0x0 C:/devkitPro/devkitARM/bin/../lib/gcc/arm-none-eabi/15.2.0/../../../../arm-none-eabi/lib/thumb\libg.a(libc_a-strtok.o)
 .text          0x00000000        0x0 C:/devkitPro/devkitARM/bin/../lib/gcc/arm-none-eabi/15.2.0/../../../../arm-none-eabi/lib/thumb\libg.a(libc_a-svfprintf.o)
 .data          0x00000000        0x0 C:/devkitPro/devkitARM/bin/../lib/gcc/arm-none-eabi/15.2.0/../../../../arm-none-eabi/lib/thumb\libg.a(libc_a-svfprintf.o)
 .bss           0x00000000        0x0 C:/devkitPro/devkitARM/bin/../lib/gcc/arm-none-eabi/15.2.0/../../../../arm-none-eabi/lib/thumb\libg.a(libc_a-svfprintf.o)
 .text          0x00000000        0x0 C:/devkitPro/devkitARM/bin/../lib/gcc/arm-none-eabi/15.2.0/../../../../arm-none-eabi/lib/thumb\libg.a(libc_a-strnlen.o)
 .data          0x00000000        0x0 C:/devkitPro/devkitARM/bin/../lib/gcc/arm-none-eabi/15.2.0/../../../../arm-none-eabi/lib/thumb\libg.a(libc_a-strnlen.o)
 .bss           0x00000000        0x0 C:/devkitPro/devkitARM/bin/../lib/gcc/arm-none-eabi/15.2.0/../../../../arm-none-eabi/lib/thumb\libg.a(libc_a-strnlen.o)
 .text          0x00000000        0x0 C:/devkitPro/devkitARM/bin/../lib/gcc/arm-none-eabi/15.2.0/../../../../arm-none-eabi/lib/thumb\libg.a(libc_a-malloc.o)
 .data          0x00000000        0x0 C:/devkitPro/devkitARM/bin/../lib/gcc/arm-none-eabi/15.2.0/../../../../arm-none-eabi/lib/thumb\libg.a(libc_a-malloc.o)
 .bss           0x00000000        0x0 C:/devkitPro/devkitARM/bin/../lib/gcc/arm-none-eabi/15.2.0/../../../../arm-none-eabi/lib/thumb\libg.a(libc_a-malloc.o)
 .text          0x00000000        0x0 C:/devkitPro/devkitARM/bin/../lib/gcc/arm-none-eabi/15.2.0/../../../../arm-none-eabi/lib/thumb\libg.a(libc_a-strstr.o)
 .data          0x00000000        0x0 C:/devkitPro/devkitARM/bin/../lib/gcc/arm-none-eabi/15.2.0/../../../../arm-none-eabi/lib/thumb\libg.a(libc_a-strstr.o)
 .bss           0x00000000        0x0 C:/devkitPro/devkitARM/bin/../lib/gcc/arm-none-eabi/15.2.0/../../../../arm-none-eabi/lib/thumb\libg.a(libc_a-strstr.o)
 .text.two_way_short_needle
                0x00000000      0x18c C:/devkitPro/devkitARM/bin/../lib/gcc/arm-none-eabi/15.2.0/../../../../arm-none-eabi/lib/thumb\libg.a(libc_a-strstr.o)
 .text          0x00000000        0x0 C:/devkitPro/devkitARM/bin/../lib/gcc/arm-none-eabi/15.2.0/../../../../arm-none-eabi/lib/thumb\libg.a(libc_a-memset.o)
 .data          0x00000000        0x0 C:/devkitPro/devkitARM/bin/../lib/gcc/arm-none-eabi/15.2.0/../../../../arm-none-eabi/lib/thumb\libg.a(libc_a-memset.o)
 .bss           0x00000000        0x0 C:/devkitPro/devkitARM/bin/../lib/gcc/arm-none-eabi/15.2.0/../../../../arm-none-eabi/lib/thumb\libg.a(libc_a-memset.o)
 .text          0x00000000        0x0 C:/devkitPro/devkitARM/bin/../lib/gcc/arm-none-eabi/15.2.0/../../../../arm-none-eabi/lib/thumb\libg.a(libc_a-mlock.o)
 .data          0x00000000        0x0 C:/devkitPro/devkitARM/bin/../lib/gcc/arm-none-eabi/15.2.0/../../../../arm-none-eabi/lib/thumb\libg.a(libc_a-mlock.o)
 .bss           0x00000000        0x0 C:/devkitPro/devkitARM/bin/../lib/gcc/arm-none-eabi/15.2.0/../../../../arm-none-eabi/lib/thumb\libg.a(libc_a-mlock.o)
 .text          0x00000000        0x0 C:/devkitPro/devkitARM/bin/../lib/gcc/arm-none-eabi/15.2.0/../../../../arm-none-eabi/lib/thumb\libg.a(libc_a-exit.o)
 .data          0x00000000        0x0 C:/devkitPro/devkitARM/bin/../lib/gcc/arm-none-eabi/15.2.0/../../../../arm-none-eabi/lib/thumb\libg.a(libc_a-exit.o)
 .bss           0x00000000        0x0 C:/devkitPro/devkitARM/bin/../lib/gcc/arm-none-eabi/15.2.0/../../../../arm-none-eabi/lib/thumb\libg.a(libc_a-exit.o)
 .bss.__stdio_exit_handler
                0x00000000        0x4 C:/devkitPro/devkitARM/bin/../lib/gcc/arm-none-eabi/15.2.0/../../../../arm-none-eabi/lib/thumb\libg.a(libc_a-exit.o)
 .text          0x00000000        0x0 C:/devkitPro/devkitARM/bin/../lib/gcc/arm-none-eabi/15.2.0/../../../../arm-none-eabi/lib/thumb\libg.a(libc_a-setvbuf.o)
 .data          0x00000000        0x0 C:/devkitPro/devkitARM/bin/../lib/gcc/arm-none-eabi/15.2.0/../../../../arm-none-eabi/lib/thumb\libg.a(libc_a-setvbuf.o)
 .bss           0x00000000        0x0 C:/devkitPro/devkitARM/bin/../lib/gcc/arm-none-eabi/15.2.0/../../../../arm-none-eabi/lib/thumb\libg.a(libc_a-setvbuf.o)
 .text          0x00000000        0x0 C:/devkitPro/devkitARM/bin/../lib/gcc/arm-none-eabi/15.2.0/../../../../arm-none-eabi/lib/thumb\libg.a(libc_a-strtok_r.o)
 .data          0x00000000        0x0 C:/devkitPro/devkitARM/bin/../lib/gcc/arm-none-eabi/15.2.0/../../../../arm-none-eabi/lib/thumb\libg.a(libc_a-strtok_r.o)
 .bss           0x00000000        0x0 C:/devkitPro/devkitARM/bin/../lib/gcc/arm-none-eabi/15.2.0/../../../../arm-none-eabi/lib/thumb\libg.a(libc_a-strtok_r.o)
 .text.strtok_r
                0x00000000       0x10 C:/devkitPro/devkitARM/bin/../lib/gcc/arm-none-eabi/15.2.0/../../../../arm-none-eabi/lib/thumb\libg.a(libc_a-strtok_r.o)
 .text          0x00000000        0x0 C:/devkitPro/devkitARM/bin/../lib/gcc/arm-none-eabi/15.2.0/../../../../arm-none-eabi/lib/thumb\libg.a(libc_a-sysclose.o)
 .data          0x00000000        0x0 C:/devkitPro/devkitARM/bin/../lib/gcc/arm-none-eabi/15.2.0/../../../../arm-none-eabi/lib/thumb\libg.a(libc_a-sysclose.o)
 .bss           0x00000000        0x0 C:/devkitPro/devkitARM/bin/../lib/gcc/arm-none-eabi/15.2.0/../../../../arm-none-eabi/lib/thumb\libg.a(libc_a-sysclose.o)
 .text          0x00000000        0x0 C:/devkitPro/devkitARM/bin/../lib/gcc/arm-none-eabi/15.2.0/../../../../arm-none-eabi/lib/thumb\libg.a(libc_a-strncpy.o)
 .data          0x00000000        0x0 C:/devkitPro/devkitARM/bin/../lib/gcc/arm-none-eabi/15.2.0/../../../../arm-none-eabi/lib/thumb\libg.a(libc_a-strncpy.o)
 .bss           0x00000000        0x0 C:/devkitPro/devkitARM/bin/../lib/gcc/arm-none-eabi/15.2.0/../../../../arm-none-eabi/lib/thumb\libg.a(libc_a-strncpy.o)
 .text          0x00000000        0x0 C:/devkitPro/devkitARM/bin/../lib/gcc/arm-none-eabi/15.2.0/../../../../arm-none-eabi/lib/thumb\libg.a(libc_a-memcpy-stub.o)
 .data          0x00000000        0x0 C:/devkitPro/devkitARM/bin/../lib/gcc/arm-none-eabi/15.2.0/../../../../arm-none-eabi/lib/thumb\libg.a(libc_a-memcpy-stub.o)
 .bss           0x00000000        0x0 C:/devkitPro/devkitARM/bin/../lib/gcc/arm-none-eabi/15.2.0/../../../../arm-none-eabi/lib/thumb\libg.a(libc_a-memcpy-stub.o)
 .text          0x00000000        0x0 C:/devkitPro/devkitARM/bin/../lib/gcc/arm-none-eabi/15.2.0/../../../../arm-none-eabi/lib/thumb\libg.a(libc_a-wcsrtombs.o)
 .data          0x00000000        0x0 C:/devkitPro/devkitARM/bin/../lib/gcc/arm-none-eabi/15.2.0/../../../../arm-none-eabi/lib/thumb\libg.a(libc_a-wcsrtombs.o)
 .bss           0x00000000        0x0 C:/devkitPro/devkitARM/bin/../lib/gcc/arm-none-eabi/15.2.0/../../../../arm-none-eabi/lib/thumb\libg.a(libc_a-wcsrtombs.o)
 .text.wcsrtombs
                0x00000000       0x28 C:/devkitPro/devkitARM/bin/../lib/gcc/arm-none-eabi/15.2.0/../../../../arm-none-eabi/lib/thumb\libg.a(libc_a-wcsrtombs.o)
 .text          0x00000000        0x0 C:/devkitPro/devkitARM/bin/../lib/gcc/arm-none-eabi/15.2.0/../../../../arm-none-eabi/lib/thumb\libg.a(libc_a-svfiprintf.o)
 .data          0x00000000        0x0 C:/devkitPro/devkitARM/bin/../lib/gcc/arm-none-eabi/15.2.0/../../../../arm-none-eabi/lib/thumb\libg.a(libc_a-svfiprintf.o)
 .bss           0x00000000        0x0 C:/devkitPro/devkitARM/bin/../lib/gcc/arm-none-eabi/15.2.0/../../../../arm-none-eabi/lib/thumb\libg.a(libc_a-svfiprintf.o)
 .text.get_arg  0x00000000      0x404 C:/devkitPro/devkitARM/bin/../lib/gcc/arm-none-eabi/15.2.0/../../../../arm-none-eabi/lib/thumb\libg.a(libc_a-svfiprintf.o)
 .rodata._svfiprintf_r.str1.1
                0x00000000       0x29 C:/devkitPro/devkitARM/bin/../lib/gcc/arm-none-eabi/15.2.0/../../../../arm-none-eabi/lib/thumb\libg.a(libc_a-svfiprintf.o)
 .text._svfiprintf_r
                0x00000000     0x16a0 C:/devkitPro/devkitARM/bin/../lib/gcc/arm-none-eabi/15.2.0/../../../../arm-none-eabi/lib/thumb\libg.a(libc_a-svfiprintf.o)
 .rodata.zeroes.0
                0x00000000       0x10 C:/devkitPro/devkitARM/bin/../lib/gcc/arm-none-eabi/15.2.0/../../../../arm-none-eabi/lib/thumb\libg.a(libc_a-svfiprintf.o)
 .rodata.blanks.1
                0x00000000       0x10 C:/devkitPro/devkitARM/bin/../lib/gcc/arm-none-eabi/15.2.0/../../../../arm-none-eabi/lib/thumb\libg.a(libc_a-svfiprintf.o)
 .text          0x00000000        0x0 C:/devkitPro/devkitARM/bin/../lib/gcc/arm-none-eabi/15.2.0/../../../../arm-none-eabi/lib/thumb\libg.a(libc_a-sscanf.o)
 .data          0x00000000        0x0 C:/devkitPro/devkitARM/bin/../lib/gcc/arm-none-eabi/15.2.0/../../../../arm-none-eabi/lib/thumb\libg.a(libc_a-sscanf.o)
 .bss           0x00000000        0x0 C:/devkitPro/devkitARM/bin/../lib/gcc/arm-none-eabi/15.2.0/../../../../arm-none-eabi/lib/thumb\libg.a(libc_a-sscanf.o)
 .text._sscanf_r
                0x00000000       0x54 C:/devkitPro/devkitARM/bin/../lib/gcc/arm-none-eabi/15.2.0/../../../../arm-none-eabi/lib/thumb\libg.a(libc_a-sscanf.o)
 .text          0x00000000        0x0 C:/devkitPro/devkitARM/bin/../lib/gcc/arm-none-eabi/15.2.0/../../../../arm-none-eabi/lib/thumb\libg.a(libc_a-iprintf.o)
 .data          0x00000000        0x0 C:/devkitPro/devkitARM/bin/../lib/gcc/arm-none-eabi/15.2.0/../../../../arm-none-eabi/lib/thumb\libg.a(libc_a-iprintf.o)
 .bss           0x00000000        0x0 C:/devkitPro/devkitARM/bin/../lib/gcc/arm-none-eabi/15.2.0/../../../../arm-none-eabi/lib/thumb\libg.a(libc_a-iprintf.o)
 .text._iprintf_r
                0x00000000       0x1c C:/devkitPro/devkitARM/bin/../lib/gcc/arm-none-eabi/15.2.0/../../../../arm-none-eabi/lib/thumb\libg.a(libc_a-iprintf.o)
 .text          0x00000000        0x0 C:/devkitPro/devkitARM/bin/../lib/gcc/arm-none-eabi/15.2.0/../../../../arm-none-eabi/lib/thumb\libg.a(libm_a-s_frexp.o)
 .data          0x00000000        0x0 C:/devkitPro/devkitARM/bin/../lib/gcc/arm-none-eabi/15.2.0/../../../../arm-none-eabi/lib/thumb\libg.a(libm_a-s_frexp.o)
 .bss           0x00000000        0x0 C:/devkitPro/devkitARM/bin/../lib/gcc/arm-none-eabi/15.2.0/../../../../arm-none-eabi/lib/thumb\libg.a(libm_a-s_frexp.o)
 .text          0x00000000        0x0 C:/devkitPro/devkitARM/bin/../lib/gcc/arm-none-eabi/15.2.0/../../../../arm-none-eabi/lib/thumb\libg.a(libc_a-stdio.o)
 .data          0x00000000        0x0 C:/devkitPro/devkitARM/bin/../lib/gcc/arm-none-eabi/15.2.0/../../../../arm-none-eabi/lib/thumb\libg.a(libc_a-stdio.o)
 .bss           0x00000000        0x0 C:/devkitPro/devkitARM/bin/../lib/gcc/arm-none-eabi/15.2.0/../../../../arm-none-eabi/lib/thumb\libg.a(libc_a-stdio.o)
 .text          0x00000000        0x0 C:/devkitPro/devkitARM/bin/../lib/gcc/arm-none-eabi/15.2.0/../../../../arm-none-eabi/lib/thumb\libg.a(libc_a-locale.o)
 .data          0x00000000        0x0 C:/devkitPro/devkitARM/bin/../lib/gcc/arm-none-eabi/15.2.0/../../../../arm-none-eabi/lib/thumb\libg.a(libc_a-locale.o)
 .bss           0x00000000        0x0 C:/devkitPro/devkitARM/bin/../lib/gcc/arm-none-eabi/15.2.0/../../../../arm-none-eabi/lib/thumb\libg.a(libc_a-locale.o)
 .rodata.currentlocale.str1.4
                0x00000000        0x2 C:/devkitPro/devkitARM/bin/../lib/gcc/arm-none-eabi/15.2.0/../../../../arm-none-eabi/lib/thumb\libg.a(libc_a-locale.o)
 .text.currentlocale
                0x00000000       0x64 C:/devkitPro/devkitARM/bin/../lib/gcc/arm-none-eabi/15.2.0/../../../../arm-none-eabi/lib/thumb\libg.a(libc_a-locale.o)
 .rodata.__loadlocale.str1.4
                0x00000000       0xde C:/devkitPro/devkitARM/bin/../lib/gcc/arm-none-eabi/15.2.0/../../../../arm-none-eabi/lib/thumb\libg.a(libc_a-locale.o)
 .text.__loadlocale
                0x00000000      0x610 C:/devkitPro/devkitARM/bin/../lib/gcc/arm-none-eabi/15.2.0/../../../../arm-none-eabi/lib/thumb\libg.a(libc_a-locale.o)
 .rodata.__loadlocale
                0x00000000       0xd4 C:/devkitPro/devkitARM/bin/../lib/gcc/arm-none-eabi/15.2.0/../../../../arm-none-eabi/lib/thumb\libg.a(libc_a-locale.o)
 .rodata.__get_locale_env.str1.4
                0x00000000        0xd C:/devkitPro/devkitARM/bin/../lib/gcc/arm-none-eabi/15.2.0/../../../../arm-none-eabi/lib/thumb\libg.a(libc_a-locale.o)
 .text.__get_locale_env
                0x00000000       0x58 C:/devkitPro/devkitARM/bin/../lib/gcc/arm-none-eabi/15.2.0/../../../../arm-none-eabi/lib/thumb\libg.a(libc_a-locale.o)
 .text._setlocale_r
                0x00000000      0x230 C:/devkitPro/devkitARM/bin/../lib/gcc/arm-none-eabi/15.2.0/../../../../arm-none-eabi/lib/thumb\libg.a(libc_a-locale.o)
 .text.setlocale
                0x00000000       0x18 C:/devkitPro/devkitARM/bin/../lib/gcc/arm-none-eabi/15.2.0/../../../../arm-none-eabi/lib/thumb\libg.a(libc_a-locale.o)
 .bss.saved_categories.0
                0x00000000       0xe0 C:/devkitPro/devkitARM/bin/../lib/gcc/arm-none-eabi/15.2.0/../../../../arm-none-eabi/lib/thumb\libg.a(libc_a-locale.o)
 .bss.new_categories.1
                0x00000000       0xe0 C:/devkitPro/devkitARM/bin/../lib/gcc/arm-none-eabi/15.2.0/../../../../arm-none-eabi/lib/thumb\libg.a(libc_a-locale.o)
 .data.global_locale_string
                0x00000000       0xe7 C:/devkitPro/devkitARM/bin/../lib/gcc/arm-none-eabi/15.2.0/../../../../arm-none-eabi/lib/thumb\libg.a(libc_a-locale.o)
 .rodata.__C_locale
                0x00000000      0x16c C:/devkitPro/devkitARM/bin/../lib/gcc/arm-none-eabi/15.2.0/../../../../arm-none-eabi/lib/thumb\libg.a(libc_a-locale.o)
 .data.__default_locale
                0x00000000       0x20 C:/devkitPro/devkitARM/bin/../lib/gcc/arm-none-eabi/15.2.0/../../../../arm-none-eabi/lib/thumb\libg.a(libc_a-locale.o)
 .rodata.categories
                0x00000000       0x1c C:/devkitPro/devkitARM/bin/../lib/gcc/arm-none-eabi/15.2.0/../../../../arm-none-eabi/lib/thumb\libg.a(libc_a-locale.o)
 .bss._PathLocale
                0x00000000        0x4 C:/devkitPro/devkitARM/bin/../lib/gcc/arm-none-eabi/15.2.0/../../../../arm-none-eabi/lib/thumb\libg.a(libc_a-locale.o)
 .text          0x00000000        0x0 C:/devkitPro/devkitARM/bin/../lib/gcc/arm-none-eabi/15.2.0/../../../../arm-none-eabi/lib/thumb\libg.a(libc_a-ssprint_r.o)
 .data          0x00000000        0x0 C:/devkitPro/devkitARM/bin/../lib/gcc/arm-none-eabi/15.2.0/../../../../arm-none-eabi/lib/thumb\libg.a(libc_a-ssprint_r.o)
 .bss           0x00000000        0x0 C:/devkitPro/devkitARM/bin/../lib/gcc/arm-none-eabi/15.2.0/../../../../arm-none-eabi/lib/thumb\libg.a(libc_a-ssprint_r.o)
 .text          0x00000000        0x0 C:/devkitPro/devkitARM/bin/../lib/gcc/arm-none-eabi/15.2.0/../../../../arm-none-eabi/lib/thumb\libg.a(libc_a-vfiprintf.o)
 .data          0x00000000        0x0 C:/devkitPro/devkitARM/bin/../lib/gcc/arm-none-eabi/15.2.0/../../../../arm-none-eabi/lib/thumb\libg.a(libc_a-vfiprintf.o)
 .bss           0x00000000        0x0 C:/devkitPro/devkitARM/bin/../lib/gcc/arm-none-eabi/15.2.0/../../../../arm-none-eabi/lib/thumb\libg.a(libc_a-vfiprintf.o)
 .text.vfiprintf
                0x00000000       0x1c C:/devkitPro/devkitARM/bin/../lib/gcc/arm-none-eabi/15.2.0/../../../../arm-none-eabi/lib/thumb\libg.a(libc_a-vfiprintf.o)
 .text          0x00000000        0x0 C:/devkitPro/devkitARM/bin/../lib/gcc/arm-none-eabi/15.2.0/../../../../arm-none-eabi/lib/thumb\libg.a(libc_a-malignr.o)
 .data          0x00000000        0x0 C:/devkitPro/devkitARM/bin/../lib/gcc/arm-none-eabi/15.2.0/../../../../arm-none-eabi/lib/thumb\libg.a(libc_a-malignr.o)
 .bss           0x00000000        0x0 C:/devkitPro/devkitARM/bin/../lib/gcc/arm-none-eabi/15.2.0/../../../../arm-none-eabi/lib/thumb\libg.a(libc_a-malignr.o)
 .text          0x00000000        0x0 C:/devkitPro/devkitARM/bin/../lib/gcc/arm-none-eabi/15.2.0/../../../../arm-none-eabi/lib/thumb\libg.a(libc_a-strcat.o)
 .data          0x00000000        0x0 C:/devkitPro/devkitARM/bin/../lib/gcc/arm-none-eabi/15.2.0/../../../../arm-none-eabi/lib/thumb\libg.a(libc_a-strcat.o)
 .bss           0x00000000        0x0 C:/devkitPro/devkitARM/bin/../lib/gcc/arm-none-eabi/15.2.0/../../../../arm-none-eabi/lib/thumb\libg.a(libc_a-strcat.o)
 .text.strcat   0x00000000       0x50 C:/devkitPro/devkitARM/bin/../lib/gcc/arm-none-eabi/15.2.0/../../../../arm-none-eabi/lib/thumb\libg.a(libc_a-strcat.o)
 .text          0x00000000        0x0 C:/devkitPro/devkitARM/bin/../lib/gcc/arm-none-eabi/15.2.0/../../../../arm-none-eabi/lib/thumb\libg.a(libc_a-wcsnrtombs.o)
 .data          0x00000000        0x0 C:/devkitPro/devkitARM/bin/../lib/gcc/arm-none-eabi/15.2.0/../../../../arm-none-eabi/lib/thumb\libg.a(libc_a-wcsnrtombs.o)
 .bss           0x00000000        0x0 C:/devkitPro/devkitARM/bin/../lib/gcc/arm-none-eabi/15.2.0/../../../../arm-none-eabi/lib/thumb\libg.a(libc_a-wcsnrtombs.o)
 .text.wcsnrtombs
                0x00000000       0x48 C:/devkitPro/devkitARM/bin/../lib/gcc/arm-none-eabi/15.2.0/../../../../arm-none-eabi/lib/thumb\libg.a(libc_a-wcsnrtombs.o)
 .text          0x00000000        0x0 C:/devkitPro/devkitARM/bin/../lib/gcc/arm-none-eabi/15.2.0/../../../../arm-none-eabi/lib/thumb\libg.a(libc_a-svfiscanf.o)
 .data          0x00000000        0x0 C:/devkitPro/devkitARM/bin/../lib/gcc/arm-none-eabi/15.2.0/../../../../arm-none-eabi/lib/thumb\libg.a(libc_a-svfiscanf.o)
 .bss           0x00000000        0x0 C:/devkitPro/devkitARM/bin/../lib/gcc/arm-none-eabi/15.2.0/../../../../arm-none-eabi/lib/thumb\libg.a(libc_a-svfiscanf.o)
 .text          0x00000000        0x0 C:/devkitPro/devkitARM/bin/../lib/gcc/arm-none-eabi/15.2.0/../../../../arm-none-eabi/lib/thumb\libg.a(libc_a-memcmp.o)
 .data          0x00000000        0x0 C:/devkitPro/devkitARM/bin/../lib/gcc/arm-none-eabi/15.2.0/../../../../arm-none-eabi/lib/thumb\libg.a(libc_a-memcmp.o)
 .bss           0x00000000        0x0 C:/devkitPro/devkitARM/bin/../lib/gcc/arm-none-eabi/15.2.0/../../../../arm-none-eabi/lib/thumb\libg.a(libc_a-memcmp.o)
 .text          0x00000000        0x0 C:/devkitPro/devkitARM/bin/../lib/gcc/arm-none-eabi/15.2.0/../../../../arm-none-eabi/lib/thumb\libg.a(libc_a-findfp.o)
 .data          0x00000000        0x0 C:/devkitPro/devkitARM/bin/../lib/gcc/arm-none-eabi/15.2.0/../../../../arm-none-eabi/lib/thumb\libg.a(libc_a-findfp.o)
 .bss           0x00000000        0x0 C:/devkitPro/devkitARM/bin/../lib/gcc/arm-none-eabi/15.2.0/../../../../arm-none-eabi/lib/thumb\libg.a(libc_a-findfp.o)
 .text.__fp_lock
                0x00000000       0x20 C:/devkitPro/devkitARM/bin/../lib/gcc/arm-none-eabi/15.2.0/../../../../arm-none-eabi/lib/thumb\libg.a(libc_a-findfp.o)
 .text.__fp_unlock
                0x00000000       0x20 C:/devkitPro/devkitARM/bin/../lib/gcc/arm-none-eabi/15.2.0/../../../../arm-none-eabi/lib/thumb\libg.a(libc_a-findfp.o)
 .text.__sfp    0x00000000       0xcc C:/devkitPro/devkitARM/bin/../lib/gcc/arm-none-eabi/15.2.0/../../../../arm-none-eabi/lib/thumb\libg.a(libc_a-findfp.o)
 .text.__fp_lock_all
                0x00000000       0x24 C:/devkitPro/devkitARM/bin/../lib/gcc/arm-none-eabi/15.2.0/../../../../arm-none-eabi/lib/thumb\libg.a(libc_a-findfp.o)
 .text.__fp_unlock_all
                0x00000000       0x24 C:/devkitPro/devkitARM/bin/../lib/gcc/arm-none-eabi/15.2.0/../../../../arm-none-eabi/lib/thumb\libg.a(libc_a-findfp.o)
 .text          0x00000000        0x0 C:/devkitPro/devkitARM/bin/../lib/gcc/arm-none-eabi/15.2.0/../../../../arm-none-eabi/lib/thumb\libg.a(libc_a-strtoul.o)
 .data          0x00000000        0x0 C:/devkitPro/devkitARM/bin/../lib/gcc/arm-none-eabi/15.2.0/../../../../arm-none-eabi/lib/thumb\libg.a(libc_a-strtoul.o)
 .bss           0x00000000        0x0 C:/devkitPro/devkitARM/bin/../lib/gcc/arm-none-eabi/15.2.0/../../../../arm-none-eabi/lib/thumb\libg.a(libc_a-strtoul.o)
 .text.strtoul_l
                0x00000000       0x1c C:/devkitPro/devkitARM/bin/../lib/gcc/arm-none-eabi/15.2.0/../../../../arm-none-eabi/lib/thumb\libg.a(libc_a-strtoul.o)
 .text.strtoul  0x00000000       0x24 C:/devkitPro/devkitARM/bin/../lib/gcc/arm-none-eabi/15.2.0/../../../../arm-none-eabi/lib/thumb\libg.a(libc_a-strtoul.o)
 .text          0x00000000        0x0 C:/devkitPro/devkitARM/bin/../lib/gcc/arm-none-eabi/15.2.0/../../../../arm-none-eabi/lib/thumb\libg.a(libc_a-mbtowc_r.o)
 .data          0x00000000        0x0 C:/devkitPro/devkitARM/bin/../lib/gcc/arm-none-eabi/15.2.0/../../../../arm-none-eabi/lib/thumb\libg.a(libc_a-mbtowc_r.o)
 .bss           0x00000000        0x0 C:/devkitPro/devkitARM/bin/../lib/gcc/arm-none-eabi/15.2.0/../../../../arm-none-eabi/lib/thumb\libg.a(libc_a-mbtowc_r.o)
 .text._mbtowc_r
                0x00000000       0x48 C:/devkitPro/devkitARM/bin/../lib/gcc/arm-none-eabi/15.2.0/../../../../arm-none-eabi/lib/thumb\libg.a(libc_a-mbtowc_r.o)
 .text.__ascii_mbtowc
                0x00000000       0x2c C:/devkitPro/devkitARM/bin/../lib/gcc/arm-none-eabi/15.2.0/../../../../arm-none-eabi/lib/thumb\libg.a(libc_a-mbtowc_r.o)
 .text.__sjis_mbtowc
                0x00000000       0xb0 C:/devkitPro/devkitARM/bin/../lib/gcc/arm-none-eabi/15.2.0/../../../../arm-none-eabi/lib/thumb\libg.a(libc_a-mbtowc_r.o)
 .text.__eucjp_mbtowc
                0x00000000       0xe0 C:/devkitPro/devkitARM/bin/../lib/gcc/arm-none-eabi/15.2.0/../../../../arm-none-eabi/lib/thumb\libg.a(libc_a-mbtowc_r.o)
 .text.__jis_mbtowc
                0x00000000      0x12c C:/devkitPro/devkitARM/bin/../lib/gcc/arm-none-eabi/15.2.0/../../../../arm-none-eabi/lib/thumb\libg.a(libc_a-mbtowc_r.o)
 .rodata.__jis_mbtowc
                0x00000000       0xd8 C:/devkitPro/devkitARM/bin/../lib/gcc/arm-none-eabi/15.2.0/../../../../arm-none-eabi/lib/thumb\libg.a(libc_a-mbtowc_r.o)
 .rodata.JIS_action_table
                0x00000000       0x48 C:/devkitPro/devkitARM/bin/../lib/gcc/arm-none-eabi/15.2.0/../../../../arm-none-eabi/lib/thumb\libg.a(libc_a-mbtowc_r.o)
 .rodata.JIS_state_table
                0x00000000       0x48 C:/devkitPro/devkitARM/bin/../lib/gcc/arm-none-eabi/15.2.0/../../../../arm-none-eabi/lib/thumb\libg.a(libc_a-mbtowc_r.o)
 .text          0x00000000        0x0 C:/devkitPro/devkitARM/bin/../lib/gcc/arm-none-eabi/15.2.0/../../../../arm-none-eabi/lib/thumb\libg.a(libc_a-fwalk.o)
 .data          0x00000000        0x0 C:/devkitPro/devkitARM/bin/../lib/gcc/arm-none-eabi/15.2.0/../../../../arm-none-eabi/lib/thumb\libg.a(libc_a-fwalk.o)
 .bss           0x00000000        0x0 C:/devkitPro/devkitARM/bin/../lib/gcc/arm-none-eabi/15.2.0/../../../../arm-none-eabi/lib/thumb\libg.a(libc_a-fwalk.o)
 .text          0x00000000        0x0 C:/devkitPro/devkitARM/bin/../lib/gcc/arm-none-eabi/15.2.0/../../../../arm-none-eabi/lib/thumb\libg.a(libc_a-sprint_r.o)
 .data          0x00000000        0x0 C:/devkitPro/devkitARM/bin/../lib/gcc/arm-none-eabi/15.2.0/../../../../arm-none-eabi/lib/thumb\libg.a(libc_a-sprint_r.o)
 .bss           0x00000000        0x0 C:/devkitPro/devkitARM/bin/../lib/gcc/arm-none-eabi/15.2.0/../../../../arm-none-eabi/lib/thumb\libg.a(libc_a-sprint_r.o)
 .text          0x00000000        0x0 C:/devkitPro/devkitARM/bin/../lib/gcc/arm-none-eabi/15.2.0/../../../../arm-none-eabi/lib/thumb\libg.a(libc_a-iswspace.o)
 .data          0x00000000        0x0 C:/devkitPro/devkitARM/bin/../lib/gcc/arm-none-eabi/15.2.0/../../../../arm-none-eabi/lib/thumb\libg.a(libc_a-iswspace.o)
 .bss           0x00000000        0x0 C:/devkitPro/devkitARM/bin/../lib/gcc/arm-none-eabi/15.2.0/../../../../arm-none-eabi/lib/thumb\libg.a(libc_a-iswspace.o)
 .text          0x00000000        0x0 C:/devkitPro/devkitARM/bin/../lib/gcc/arm-none-eabi/15.2.0/../../../../arm-none-eabi/lib/thumb\libg.a(libc_a-localeconv.o)
 .data          0x00000000        0x0 C:/devkitPro/devkitARM/bin/../lib/gcc/arm-none-eabi/15.2.0/../../../../arm-none-eabi/lib/thumb\libg.a(libc_a-localeconv.o)
 .bss           0x00000000        0x0 C:/devkitPro/devkitARM/bin/../lib/gcc/arm-none-eabi/15.2.0/../../../../arm-none-eabi/lib/thumb\libg.a(libc_a-localeconv.o)
 .text.__localeconv_l
                0x00000000        0x4 C:/devkitPro/devkitARM/bin/../lib/gcc/arm-none-eabi/15.2.0/../../../../arm-none-eabi/lib/thumb\libg.a(libc_a-localeconv.o)
 .text.localeconv
                0x00000000       0x1c C:/devkitPro/devkitARM/bin/../lib/gcc/arm-none-eabi/15.2.0/../../../../arm-none-eabi/lib/thumb\libg.a(libc_a-localeconv.o)
 .text          0x00000000        0x0 C:/devkitPro/devkitARM/bin/../lib/gcc/arm-none-eabi/15.2.0/../../../../arm-none-eabi/lib/thumb\libg.a(libc_a-realloc.o)
 .data          0x00000000        0x0 C:/devkitPro/devkitARM/bin/../lib/gcc/arm-none-eabi/15.2.0/../../../../arm-none-eabi/lib/thumb\libg.a(libc_a-realloc.o)
 .bss           0x00000000        0x0 C:/devkitPro/devkitARM/bin/../lib/gcc/arm-none-eabi/15.2.0/../../../../arm-none-eabi/lib/thumb\libg.a(libc_a-realloc.o)
 .text          0x00000000        0x0 C:/devkitPro/devkitARM/bin/../lib/gcc/arm-none-eabi/15.2.0/../../../../arm-none-eabi/lib/thumb\libg.a(libc_a-strlcpy.o)
 .data          0x00000000        0x0 C:/devkitPro/devkitARM/bin/../lib/gcc/arm-none-eabi/15.2.0/../../../../arm-none-eabi/lib/thumb\libg.a(libc_a-strlcpy.o)
 .bss           0x00000000        0x0 C:/devkitPro/devkitARM/bin/../lib/gcc/arm-none-eabi/15.2.0/../../../../arm-none-eabi/lib/thumb\libg.a(libc_a-strlcpy.o)
 .text.strlcpy  0x00000000       0x50 C:/devkitPro/devkitARM/bin/../lib/gcc/arm-none-eabi/15.2.0/../../../../arm-none-eabi/lib/thumb\libg.a(libc_a-strlcpy.o)
 .text          0x00000000        0x0 C:/devkitPro/devkitARM/bin/../lib/gcc/arm-none-eabi/15.2.0/../../../../arm-none-eabi/lib/thumb\libg.a(libc_a-memchr-stub.o)
 .data          0x00000000        0x0 C:/devkitPro/devkitARM/bin/../lib/gcc/arm-none-eabi/15.2.0/../../../../arm-none-eabi/lib/thumb\libg.a(libc_a-memchr-stub.o)
 .bss           0x00000000        0x0 C:/devkitPro/devkitARM/bin/../lib/gcc/arm-none-eabi/15.2.0/../../../../arm-none-eabi/lib/thumb\libg.a(libc_a-memchr-stub.o)
 .text          0x00000000        0x0 C:/devkitPro/devkitARM/bin/../lib/gcc/arm-none-eabi/15.2.0/../../../../arm-none-eabi/lib/thumb\libg.a(libc_a-strcasecmp.o)
 .data          0x00000000        0x0 C:/devkitPro/devkitARM/bin/../lib/gcc/arm-none-eabi/15.2.0/../../../../arm-none-eabi/lib/thumb\libg.a(libc_a-strcasecmp.o)
 .bss           0x00000000        0x0 C:/devkitPro/devkitARM/bin/../lib/gcc/arm-none-eabi/15.2.0/../../../../arm-none-eabi/lib/thumb\libg.a(libc_a-strcasecmp.o)
 .text.strcasecmp
                0x00000000       0x4c C:/devkitPro/devkitARM/bin/../lib/gcc/arm-none-eabi/15.2.0/../../../../arm-none-eabi/lib/thumb\libg.a(libc_a-strcasecmp.o)
 .text          0x00000000        0x0 C:/devkitPro/devkitARM/bin/../lib/gcc/arm-none-eabi/15.2.0/../../../../arm-none-eabi/lib/thumb\libg.a(libc_a-dtoa.o)
 .data          0x00000000        0x0 C:/devkitPro/devkitARM/bin/../lib/gcc/arm-none-eabi/15.2.0/../../../../arm-none-eabi/lib/thumb\libg.a(libc_a-dtoa.o)
 .bss           0x00000000        0x0 C:/devkitPro/devkitARM/bin/../lib/gcc/arm-none-eabi/15.2.0/../../../../arm-none-eabi/lib/thumb\libg.a(libc_a-dtoa.o)
 .text          0x00000000        0x0 C:/devkitPro/devkitARM/bin/../lib/gcc/arm-none-eabi/15.2.0/../../../../arm-none-eabi/lib/thumb\libg.a(libc_a-wcrtomb.o)
 .data          0x00000000        0x0 C:/devkitPro/devkitARM/bin/../lib/gcc/arm-none-eabi/15.2.0/../../../../arm-none-eabi/lib/thumb\libg.a(libc_a-wcrtomb.o)
 .bss           0x00000000        0x0 C:/devkitPro/devkitARM/bin/../lib/gcc/arm-none-eabi/15.2.0/../../../../arm-none-eabi/lib/thumb\libg.a(libc_a-wcrtomb.o)
 .text.wcrtomb  0x00000000       0x88 C:/devkitPro/devkitARM/bin/../lib/gcc/arm-none-eabi/15.2.0/../../../../arm-none-eabi/lib/thumb\libg.a(libc_a-wcrtomb.o)
 .text          0x00000000        0x0 C:/devkitPro/devkitARM/bin/../lib/gcc/arm-none-eabi/15.2.0/../../../../arm-none-eabi/lib/thumb\libg.a(libc_a-strcpy.o)
 .data          0x00000000        0x0 C:/devkitPro/devkitARM/bin/../lib/gcc/arm-none-eabi/15.2.0/../../../../arm-none-eabi/lib/thumb\libg.a(libc_a-strcpy.o)
 .bss           0x00000000        0x0 C:/devkitPro/devkitARM/bin/../lib/gcc/arm-none-eabi/15.2.0/../../../../arm-none-eabi/lib/thumb\libg.a(libc_a-strcpy.o)
 .text.strcpy   0x00000000       0x10 C:/devkitPro/devkitARM/bin/../lib/gcc/arm-none-eabi/15.2.0/../../../../arm-none-eabi/lib/thumb\libg.a(libc_a-strcpy.o)
 .text          0x00000000        0x0 C:/devkitPro/devkitARM/bin/../lib/gcc/arm-none-eabi/15.2.0/../../../../arm-none-eabi/lib/thumb\libg.a(libc_a-strtol.o)
 .data          0x00000000        0x0 C:/devkitPro/devkitARM/bin/../lib/gcc/arm-none-eabi/15.2.0/../../../../arm-none-eabi/lib/thumb\libg.a(libc_a-strtol.o)
 .bss           0x00000000        0x0 C:/devkitPro/devkitARM/bin/../lib/gcc/arm-none-eabi/15.2.0/../../../../arm-none-eabi/lib/thumb\libg.a(libc_a-strtol.o)
 .text.strtol_l
                0x00000000       0x30 C:/devkitPro/devkitARM/bin/../lib/gcc/arm-none-eabi/15.2.0/../../../../arm-none-eabi/lib/thumb\libg.a(libc_a-strtol.o)
 .text.strtol   0x00000000       0x38 C:/devkitPro/devkitARM/bin/../lib/gcc/arm-none-eabi/15.2.0/../../../../arm-none-eabi/lib/thumb\libg.a(libc_a-strtol.o)
 .text          0x00000000        0x0 C:/devkitPro/devkitARM/bin/../lib/gcc/arm-none-eabi/15.2.0/../../../../arm-none-eabi/lib/thumb\libg.a(libc_a-fini.o)
 .data          0x00000000        0x0 C:/devkitPro/devkitARM/bin/../lib/gcc/arm-none-eabi/15.2.0/../../../../arm-none-eabi/lib/thumb\libg.a(libc_a-fini.o)
 .bss           0x00000000        0x0 C:/devkitPro/devkitARM/bin/../lib/gcc/arm-none-eabi/15.2.0/../../../../arm-none-eabi/lib/thumb\libg.a(libc_a-fini.o)
 .text          0x00000000        0x0 C:/devkitPro/devkitARM/bin/../lib/gcc/arm-none-eabi/15.2.0/../../../../arm-none-eabi/lib/thumb\libg.a(libc_a-sccl.o)
 .data          0x00000000        0x0 C:/devkitPro/devkitARM/bin/../lib/gcc/arm-none-eabi/15.2.0/../../../../arm-none-eabi/lib/thumb\libg.a(libc_a-sccl.o)
 .bss           0x00000000        0x0 C:/devkitPro/devkitARM/bin/../lib/gcc/arm-none-eabi/15.2.0/../../../../arm-none-eabi/lib/thumb\libg.a(libc_a-sccl.o)
 .text          0x00000000        0x0 C:/devkitPro/devkitARM/bin/../lib/gcc/arm-none-eabi/15.2.0/../../../../arm-none-eabi/lib/thumb\libg.a(libc_a-fflush.o)
 .data          0x00000000        0x0 C:/devkitPro/devkitARM/bin/../lib/gcc/arm-none-eabi/15.2.0/../../../../arm-none-eabi/lib/thumb\libg.a(libc_a-fflush.o)
 .bss           0x00000000        0x0 C:/devkitPro/devkitARM/bin/../lib/gcc/arm-none-eabi/15.2.0/../../../../arm-none-eabi/lib/thumb\libg.a(libc_a-fflush.o)
 .text.fflush   0x00000000       0x30 C:/devkitPro/devkitARM/bin/../lib/gcc/arm-none-eabi/15.2.0/../../../../arm-none-eabi/lib/thumb\libg.a(libc_a-fflush.o)
 .text          0x00000000        0x0 C:/devkitPro/devkitARM/bin/../lib/gcc/arm-none-eabi/15.2.0/../../../../arm-none-eabi/lib/thumb\libg.a(libc_a-ctype_.o)
 .data          0x00000000        0x0 C:/devkitPro/devkitARM/bin/../lib/gcc/arm-none-eabi/15.2.0/../../../../arm-none-eabi/lib/thumb\libg.a(libc_a-ctype_.o)
 .bss           0x00000000        0x0 C:/devkitPro/devkitARM/bin/../lib/gcc/arm-none-eabi/15.2.0/../../../../arm-none-eabi/lib/thumb\libg.a(libc_a-ctype_.o)
 .text.__set_ctype
                0x00000000        0xc C:/devkitPro/devkitARM/bin/../lib/gcc/arm-none-eabi/15.2.0/../../../../arm-none-eabi/lib/thumb\libg.a(libc_a-ctype_.o)
 .text          0x00000000        0x0 C:/devkitPro/devkitARM/bin/../lib/gcc/arm-none-eabi/15.2.0/../../../../arm-none-eabi/lib/thumb\libg.a(libc_a-makebuf.o)
 .data          0x00000000        0x0 C:/devkitPro/devkitARM/bin/../lib/gcc/arm-none-eabi/15.2.0/../../../../arm-none-eabi/lib/thumb\libg.a(libc_a-makebuf.o)
 .bss           0x00000000        0x0 C:/devkitPro/devkitARM/bin/../lib/gcc/arm-none-eabi/15.2.0/../../../../arm-none-eabi/lib/thumb\libg.a(libc_a-makebuf.o)
 .text          0x00000000        0x0 C:/devkitPro/devkitARM/bin/../lib/gcc/arm-none-eabi/15.2.0/../../../../arm-none-eabi/lib/thumb\libg.a(libc_a-getenv_r.o)
 .data          0x00000000        0x0 C:/devkitPro/devkitARM/bin/../lib/gcc/arm-none-eabi/15.2.0/../../../../arm-none-eabi/lib/thumb\libg.a(libc_a-getenv_r.o)
 .bss           0x00000000        0x0 C:/devkitPro/devkitARM/bin/../lib/gcc/arm-none-eabi/15.2.0/../../../../arm-none-eabi/lib/thumb\libg.a(libc_a-getenv_r.o)
 .text._findenv_r
                0x00000000       0x94 C:/devkitPro/devkitARM/bin/../lib/gcc/arm-none-eabi/15.2.0/../../../../arm-none-eabi/lib/thumb\libg.a(libc_a-getenv_r.o)
 .text._getenv_r
                0x00000000       0x10 C:/devkitPro/devkitARM/bin/../lib/gcc/arm-none-eabi/15.2.0/../../../../arm-none-eabi/lib/thumb\libg.a(libc_a-getenv_r.o)
 .text          0x00000000        0x0 C:/devkitPro/devkitARM/bin/../lib/gcc/arm-none-eabi/15.2.0/../../../../arm-none-eabi/lib/thumb\libg.a(libc_a-reallocr.o)
 .data          0x00000000        0x0 C:/devkitPro/devkitARM/bin/../lib/gcc/arm-none-eabi/15.2.0/../../../../arm-none-eabi/lib/thumb\libg.a(libc_a-reallocr.o)
 .bss           0x00000000        0x0 C:/devkitPro/devkitARM/bin/../lib/gcc/arm-none-eabi/15.2.0/../../../../arm-none-eabi/lib/thumb\libg.a(libc_a-reallocr.o)
 .text          0x00000000        0x0 C:/devkitPro/devkitARM/bin/../lib/gcc/arm-none-eabi/15.2.0/../../../../arm-none-eabi/lib/thumb\libg.a(libc_a-ssputs_r.o)
 .data          0x00000000        0x0 C:/devkitPro/devkitARM/bin/../lib/gcc/arm-none-eabi/15.2.0/../../../../arm-none-eabi/lib/thumb\libg.a(libc_a-ssputs_r.o)
 .bss           0x00000000        0x0 C:/devkitPro/devkitARM/bin/../lib/gcc/arm-none-eabi/15.2.0/../../../../arm-none-eabi/lib/thumb\libg.a(libc_a-ssputs_r.o)
 .text          0x00000000        0x0 C:/devkitPro/devkitARM/bin/../lib/gcc/arm-none-eabi/15.2.0/../../../../arm-none-eabi/lib/thumb\libg.a(libc_a-strncasecmp.o)
 .data          0x00000000        0x0 C:/devkitPro/devkitARM/bin/../lib/gcc/arm-none-eabi/15.2.0/../../../../arm-none-eabi/lib/thumb\libg.a(libc_a-strncasecmp.o)
 .bss           0x00000000        0x0 C:/devkitPro/devkitARM/bin/../lib/gcc/arm-none-eabi/15.2.0/../../../../arm-none-eabi/lib/thumb\libg.a(libc_a-strncasecmp.o)
 .text.strncasecmp
                0x00000000       0x54 C:/devkitPro/devkitARM/bin/../lib/gcc/arm-none-eabi/15.2.0/../../../../arm-none-eabi/lib/thumb\libg.a(libc_a-strncasecmp.o)
 .text          0x00000000        0x0 C:/devkitPro/devkitARM/bin/../lib/gcc/arm-none-eabi/15.2.0/../../../../arm-none-eabi/lib/thumb\libg.a(libc_a-impure.o)
 .data          0x00000000        0x0 C:/devkitPro/devkitARM/bin/../lib/gcc/arm-none-eabi/15.2.0/../../../../arm-none-eabi/lib/thumb\libg.a(libc_a-impure.o)
 .bss           0x00000000        0x0 C:/devkitPro/devkitARM/bin/../lib/gcc/arm-none-eabi/15.2.0/../../../../arm-none-eabi/lib/thumb\libg.a(libc_a-impure.o)
 .text          0x00000000      0x224 C:/devkitPro/devkitARM/bin/../lib/gcc/arm-none-eabi/15.2.0/../../../../arm-none-eabi/lib/thumb\libg.a(libc_a-strcmp.o)
 .data          0x00000000        0x0 C:/devkitPro/devkitARM/bin/../lib/gcc/arm-none-eabi/15.2.0/../../../../arm-none-eabi/lib/thumb\libg.a(libc_a-strcmp.o)
 .bss           0x00000000        0x0 C:/devkitPro/devkitARM/bin/../lib/gcc/arm-none-eabi/15.2.0/../../../../arm-none-eabi/lib/thumb\libg.a(libc_a-strcmp.o)
 .debug_frame   0x00000000       0x40 C:/devkitPro/devkitARM/bin/../lib/gcc/arm-none-eabi/15.2.0/../../../../arm-none-eabi/lib/thumb\libg.a(libc_a-strcmp.o)
 .text          0x00000000        0x0 C:/devkitPro/devkitARM/bin/../lib/gcc/arm-none-eabi/15.2.0/../../../../arm-none-eabi/lib/thumb\libg.a(libc_a-svfscanf.o)
 .data          0x00000000        0x0 C:/devkitPro/devkitARM/bin/../lib/gcc/arm-none-eabi/15.2.0/../../../../arm-none-eabi/lib/thumb\libg.a(libc_a-svfscanf.o)
 .bss           0x00000000        0x0 C:/devkitPro/devkitARM/bin/../lib/gcc/arm-none-eabi/15.2.0/../../../../arm-none-eabi/lib/thumb\libg.a(libc_a-svfscanf.o)
 .text          0x00000000        0x0 C:/devkitPro/devkitARM/bin/../lib/gcc/arm-none-eabi/15.2.0/../../../../arm-none-eabi/lib/thumb\libg.a(libc_a-wctomb_r.o)
 .data          0x00000000        0x0 C:/devkitPro/devkitARM/bin/../lib/gcc/arm-none-eabi/15.2.0/../../../../arm-none-eabi/lib/thumb\libg.a(libc_a-wctomb_r.o)
 .bss           0x00000000        0x0 C:/devkitPro/devkitARM/bin/../lib/gcc/arm-none-eabi/15.2.0/../../../../arm-none-eabi/lib/thumb\libg.a(libc_a-wctomb_r.o)
 .text._wctomb_r
                0x00000000       0x40 C:/devkitPro/devkitARM/bin/../lib/gcc/arm-none-eabi/15.2.0/../../../../arm-none-eabi/lib/thumb\libg.a(libc_a-wctomb_r.o)
 .text.__ascii_wctomb
                0x00000000       0x1c C:/devkitPro/devkitARM/bin/../lib/gcc/arm-none-eabi/15.2.0/../../../../arm-none-eabi/lib/thumb\libg.a(libc_a-wctomb_r.o)
 .text.__sjis_wctomb
                0x00000000       0x70 C:/devkitPro/devkitARM/bin/../lib/gcc/arm-none-eabi/15.2.0/../../../../arm-none-eabi/lib/thumb\libg.a(libc_a-wctomb_r.o)
 .text.__eucjp_wctomb
                0x00000000       0x84 C:/devkitPro/devkitARM/bin/../lib/gcc/arm-none-eabi/15.2.0/../../../../arm-none-eabi/lib/thumb\libg.a(libc_a-wctomb_r.o)
 .text.__jis_wctomb
                0x00000000       0x8c C:/devkitPro/devkitARM/bin/../lib/gcc/arm-none-eabi/15.2.0/../../../../arm-none-eabi/lib/thumb\libg.a(libc_a-wctomb_r.o)
 .text          0x00000000        0x0 C:/devkitPro/devkitARM/bin/../lib/gcc/arm-none-eabi/15.2.0/../../../../arm-none-eabi/lib/thumb\libg.a(libc_a-strtoull.o)
 .data          0x00000000        0x0 C:/devkitPro/devkitARM/bin/../lib/gcc/arm-none-eabi/15.2.0/../../../../arm-none-eabi/lib/thumb\libg.a(libc_a-strtoull.o)
 .bss           0x00000000        0x0 C:/devkitPro/devkitARM/bin/../lib/gcc/arm-none-eabi/15.2.0/../../../../arm-none-eabi/lib/thumb\libg.a(libc_a-strtoull.o)
 .text.strtoull_l
                0x00000000       0x1c C:/devkitPro/devkitARM/bin/../lib/gcc/arm-none-eabi/15.2.0/../../../../arm-none-eabi/lib/thumb\libg.a(libc_a-strtoull.o)
 .text.strtoull
                0x00000000       0x24 C:/devkitPro/devkitARM/bin/../lib/gcc/arm-none-eabi/15.2.0/../../../../arm-none-eabi/lib/thumb\libg.a(libc_a-strtoull.o)
 .text          0x00000000        0x0 C:/devkitPro/devkitARM/bin/../lib/gcc/arm-none-eabi/15.2.0/../../../../arm-none-eabi/lib/thumb\libg.a(libc_a-mbrtowc.o)
 .data          0x00000000        0x0 C:/devkitPro/devkitARM/bin/../lib/gcc/arm-none-eabi/15.2.0/../../../../arm-none-eabi/lib/thumb\libg.a(libc_a-mbrtowc.o)
 .bss           0x00000000        0x0 C:/devkitPro/devkitARM/bin/../lib/gcc/arm-none-eabi/15.2.0/../../../../arm-none-eabi/lib/thumb\libg.a(libc_a-mbrtowc.o)
 .text.mbrtowc  0x00000000       0x94 C:/devkitPro/devkitARM/bin/../lib/gcc/arm-none-eabi/15.2.0/../../../../arm-none-eabi/lib/thumb\libg.a(libc_a-mbrtowc.o)
 .text          0x00000000        0x0 C:/devkitPro/devkitARM/bin/../lib/gcc/arm-none-eabi/15.2.0/../../../../arm-none-eabi/lib/thumb\libg.a(libc_a-wsetup.o)
 .data          0x00000000        0x0 C:/devkitPro/devkitARM/bin/../lib/gcc/arm-none-eabi/15.2.0/../../../../arm-none-eabi/lib/thumb\libg.a(libc_a-wsetup.o)
 .bss           0x00000000        0x0 C:/devkitPro/devkitARM/bin/../lib/gcc/arm-none-eabi/15.2.0/../../../../arm-none-eabi/lib/thumb\libg.a(libc_a-wsetup.o)
 .text          0x00000000        0x0 C:/devkitPro/devkitARM/bin/../lib/gcc/arm-none-eabi/15.2.0/../../../../arm-none-eabi/lib/thumb\libg.a(libm_a-sf_nan.o)
 .data          0x00000000        0x0 C:/devkitPro/devkitARM/bin/../lib/gcc/arm-none-eabi/15.2.0/../../../../arm-none-eabi/lib/thumb\libg.a(libm_a-sf_nan.o)
 .bss           0x00000000        0x0 C:/devkitPro/devkitARM/bin/../lib/gcc/arm-none-eabi/15.2.0/../../../../arm-none-eabi/lib/thumb\libg.a(libm_a-sf_nan.o)
 .text          0x00000000        0x0 C:/devkitPro/devkitARM/bin/../lib/gcc/arm-none-eabi/15.2.0/../../../../arm-none-eabi/lib/thumb\libg.a(libc_a-strncmp.o)
 .data          0x00000000        0x0 C:/devkitPro/devkitARM/bin/../lib/gcc/arm-none-eabi/15.2.0/../../../../arm-none-eabi/lib/thumb\libg.a(libc_a-strncmp.o)
 .bss           0x00000000        0x0 C:/devkitPro/devkitARM/bin/../lib/gcc/arm-none-eabi/15.2.0/../../../../arm-none-eabi/lib/thumb\libg.a(libc_a-strncmp.o)
 .text          0x00000000        0x0 C:/devkitPro/devkitARM/bin/../lib/gcc/arm-none-eabi/15.2.0/../../../../arm-none-eabi/lib/thumb\libg.a(libc_a-fvwrite.o)
 .data          0x00000000        0x0 C:/devkitPro/devkitARM/bin/../lib/gcc/arm-none-eabi/15.2.0/../../../../arm-none-eabi/lib/thumb\libg.a(libc_a-fvwrite.o)
 .bss           0x00000000        0x0 C:/devkitPro/devkitARM/bin/../lib/gcc/arm-none-eabi/15.2.0/../../../../arm-none-eabi/lib/thumb\libg.a(libc_a-fvwrite.o)
 .text          0x00000000        0x0 C:/devkitPro/devkitARM/bin/../lib/gcc/arm-none-eabi/15.2.0/../../../../arm-none-eabi/lib/thumb\libg.a(libc_a-envlock.o)
 .data          0x00000000        0x0 C:/devkitPro/devkitARM/bin/../lib/gcc/arm-none-eabi/15.2.0/../../../../arm-none-eabi/lib/thumb\libg.a(libc_a-envlock.o)
 .bss           0x00000000        0x0 C:/devkitPro/devkitARM/bin/../lib/gcc/arm-none-eabi/15.2.0/../../../../arm-none-eabi/lib/thumb\libg.a(libc_a-envlock.o)
 .text.__env_lock
                0x00000000       0x14 C:/devkitPro/devkitARM/bin/../lib/gcc/arm-none-eabi/15.2.0/../../../../arm-none-eabi/lib/thumb\libg.a(libc_a-envlock.o)
 .text.__env_unlock
                0x00000000       0x14 C:/devkitPro/devkitARM/bin/../lib/gcc/arm-none-eabi/15.2.0/../../../../arm-none-eabi/lib/thumb\libg.a(libc_a-envlock.o)
 .bss.__env_recursive_mutex
                0x00000000        0xc C:/devkitPro/devkitARM/bin/../lib/gcc/arm-none-eabi/15.2.0/../../../../arm-none-eabi/lib/thumb\libg.a(libc_a-envlock.o)
 .text          0x00000000        0x0 C:/devkitPro/devkitARM/bin/../lib/gcc/arm-none-eabi/15.2.0/../../../../arm-none-eabi/lib/thumb\libg.a(libc_a-assert.o)
 .data          0x00000000        0x0 C:/devkitPro/devkitARM/bin/../lib/gcc/arm-none-eabi/15.2.0/../../../../arm-none-eabi/lib/thumb\libg.a(libc_a-assert.o)
 .bss           0x00000000        0x0 C:/devkitPro/devkitARM/bin/../lib/gcc/arm-none-eabi/15.2.0/../../../../arm-none-eabi/lib/thumb\libg.a(libc_a-assert.o)
 .text.__assert
                0x00000000        0xc C:/devkitPro/devkitARM/bin/../lib/gcc/arm-none-eabi/15.2.0/../../../../arm-none-eabi/lib/thumb\libg.a(libc_a-assert.o)
 .text          0x00000000        0x0 C:/devkitPro/devkitARM/bin/../lib/gcc/arm-none-eabi/15.2.0/../../../../arm-none-eabi/lib/thumb\libg.a(libc_a-iswspace_l.o)
 .data          0x00000000        0x0 C:/devkitPro/devkitARM/bin/../lib/gcc/arm-none-eabi/15.2.0/../../../../arm-none-eabi/lib/thumb\libg.a(libc_a-iswspace_l.o)
 .bss           0x00000000        0x0 C:/devkitPro/devkitARM/bin/../lib/gcc/arm-none-eabi/15.2.0/../../../../arm-none-eabi/lib/thumb\libg.a(libc_a-iswspace_l.o)
 .text          0x00000000        0x0 C:/devkitPro/devkitARM/bin/../lib/gcc/arm-none-eabi/15.2.0/../../../../arm-none-eabi/lib/thumb\libg.a(libc_a-mprec.o)
 .data          0x00000000        0x0 C:/devkitPro/devkitARM/bin/../lib/gcc/arm-none-eabi/15.2.0/../../../../arm-none-eabi/lib/thumb\libg.a(libc_a-mprec.o)
 .bss           0x00000000        0x0 C:/devkitPro/devkitARM/bin/../lib/gcc/arm-none-eabi/15.2.0/../../../../arm-none-eabi/lib/thumb\libg.a(libc_a-mprec.o)
 .text._mprec_log10
                0x00000000       0x38 C:/devkitPro/devkitARM/bin/../lib/gcc/arm-none-eabi/15.2.0/../../../../arm-none-eabi/lib/thumb\libg.a(libc_a-mprec.o)
 .rodata.__mprec_tinytens
                0x00000000       0x28 C:/devkitPro/devkitARM/bin/../lib/gcc/arm-none-eabi/15.2.0/../../../../arm-none-eabi/lib/thumb\libg.a(libc_a-mprec.o)
 .text          0x00000000        0x0 C:/devkitPro/devkitARM/bin/../lib/gcc/arm-none-eabi/15.2.0/../../../../arm-none-eabi/lib/thumb\libg.a(libc_a-fclose.o)
 .data          0x00000000        0x0 C:/devkitPro/devkitARM/bin/../lib/gcc/arm-none-eabi/15.2.0/../../../../arm-none-eabi/lib/thumb\libg.a(libc_a-fclose.o)
 .bss           0x00000000        0x0 C:/devkitPro/devkitARM/bin/../lib/gcc/arm-none-eabi/15.2.0/../../../../arm-none-eabi/lib/thumb\libg.a(libc_a-fclose.o)
 .text.fclose   0x00000000       0x14 C:/devkitPro/devkitARM/bin/../lib/gcc/arm-none-eabi/15.2.0/../../../../arm-none-eabi/lib/thumb\libg.a(libc_a-fclose.o)
 .text          0x00000000        0x0 C:/devkitPro/devkitARM/bin/../lib/gcc/arm-none-eabi/15.2.0/../../../../arm-none-eabi/lib/thumb\libg.a(libc_a-strtoll.o)
 .data          0x00000000        0x0 C:/devkitPro/devkitARM/bin/../lib/gcc/arm-none-eabi/15.2.0/../../../../arm-none-eabi/lib/thumb\libg.a(libc_a-strtoll.o)
 .bss           0x00000000        0x0 C:/devkitPro/devkitARM/bin/../lib/gcc/arm-none-eabi/15.2.0/../../../../arm-none-eabi/lib/thumb\libg.a(libc_a-strtoll.o)
 .text.strtoll_l
                0x00000000       0x1c C:/devkitPro/devkitARM/bin/../lib/gcc/arm-none-eabi/15.2.0/../../../../arm-none-eabi/lib/thumb\libg.a(libc_a-strtoll.o)
 .text.strtoll  0x00000000       0x24 C:/devkitPro/devkitARM/bin/../lib/gcc/arm-none-eabi/15.2.0/../../../../arm-none-eabi/lib/thumb\libg.a(libc_a-strtoll.o)
 .text          0x00000000        0x0 C:/devkitPro/devkitARM/bin/../lib/gcc/arm-none-eabi/15.2.0/../../../../arm-none-eabi/lib/thumb\libg.a(libc_a-ungetc.o)
 .data          0x00000000        0x0 C:/devkitPro/devkitARM/bin/../lib/gcc/arm-none-eabi/15.2.0/../../../../arm-none-eabi/lib/thumb\libg.a(libc_a-ungetc.o)
 .bss           0x00000000        0x0 C:/devkitPro/devkitARM/bin/../lib/gcc/arm-none-eabi/15.2.0/../../../../arm-none-eabi/lib/thumb\libg.a(libc_a-ungetc.o)
 .text._ungetc_r
                0x00000000      0x140 C:/devkitPro/devkitARM/bin/../lib/gcc/arm-none-eabi/15.2.0/../../../../arm-none-eabi/lib/thumb\libg.a(libc_a-ungetc.o)
 .text.ungetc   0x00000000       0x18 C:/devkitPro/devkitARM/bin/../lib/gcc/arm-none-eabi/15.2.0/../../../../arm-none-eabi/lib/thumb\libg.a(libc_a-ungetc.o)
 .text          0x00000000        0x0 C:/devkitPro/devkitARM/bin/../lib/gcc/arm-none-eabi/15.2.0/../../../../arm-none-eabi/lib/thumb\libg.a(libc_a-strtod.o)
 .data          0x00000000        0x0 C:/devkitPro/devkitARM/bin/../lib/gcc/arm-none-eabi/15.2.0/../../../../arm-none-eabi/lib/thumb\libg.a(libc_a-strtod.o)
 .bss           0x00000000        0x0 C:/devkitPro/devkitARM/bin/../lib/gcc/arm-none-eabi/15.2.0/../../../../arm-none-eabi/lib/thumb\libg.a(libc_a-strtod.o)
 .text.strtod_l
                0x00000000       0x1c C:/devkitPro/devkitARM/bin/../lib/gcc/arm-none-eabi/15.2.0/../../../../arm-none-eabi/lib/thumb\libg.a(libc_a-strtod.o)
 .text.strtod   0x00000000       0x30 C:/devkitPro/devkitARM/bin/../lib/gcc/arm-none-eabi/15.2.0/../../../../arm-none-eabi/lib/thumb\libg.a(libc_a-strtod.o)
 .text.strtof_l
                0x00000000       0xb8 C:/devkitPro/devkitARM/bin/../lib/gcc/arm-none-eabi/15.2.0/../../../../arm-none-eabi/lib/thumb\libg.a(libc_a-strtod.o)
 .text.strtof   0x00000000       0xdc C:/devkitPro/devkitARM/bin/../lib/gcc/arm-none-eabi/15.2.0/../../../../arm-none-eabi/lib/thumb\libg.a(libc_a-strtod.o)
 .text          0x00000000        0x0 C:/devkitPro/devkitARM/bin/../lib/gcc/arm-none-eabi/15.2.0/../../../../arm-none-eabi/lib/thumb\libg.a(libc_a-fiprintf.o)
 .data          0x00000000        0x0 C:/devkitPro/devkitARM/bin/../lib/gcc/arm-none-eabi/15.2.0/../../../../arm-none-eabi/lib/thumb\libg.a(libc_a-fiprintf.o)
 .bss           0x00000000        0x0 C:/devkitPro/devkitARM/bin/../lib/gcc/arm-none-eabi/15.2.0/../../../../arm-none-eabi/lib/thumb\libg.a(libc_a-fiprintf.o)
 .text._fiprintf_r
                0x00000000       0x18 C:/devkitPro/devkitARM/bin/../lib/gcc/arm-none-eabi/15.2.0/../../../../arm-none-eabi/lib/thumb\libg.a(libc_a-fiprintf.o)
 .text          0x00000000        0x0 C:/devkitPro/devkitARM/bin/../lib/gcc/arm-none-eabi/15.2.0/../../../../arm-none-eabi/lib/thumb\libg.a(libc_a-gdtoa-gethex.o)
 .data          0x00000000        0x0 C:/devkitPro/devkitARM/bin/../lib/gcc/arm-none-eabi/15.2.0/../../../../arm-none-eabi/lib/thumb\libg.a(libc_a-gdtoa-gethex.o)
 .bss           0x00000000        0x0 C:/devkitPro/devkitARM/bin/../lib/gcc/arm-none-eabi/15.2.0/../../../../arm-none-eabi/lib/thumb\libg.a(libc_a-gdtoa-gethex.o)
 .text          0x00000000        0x0 C:/devkitPro/devkitARM/bin/../lib/gcc/arm-none-eabi/15.2.0/../../../../arm-none-eabi/lib/thumb\libg.a(libc_a-environ.o)
 .data          0x00000000        0x0 C:/devkitPro/devkitARM/bin/../lib/gcc/arm-none-eabi/15.2.0/../../../../arm-none-eabi/lib/thumb\libg.a(libc_a-environ.o)
 .bss           0x00000000        0x0 C:/devkitPro/devkitARM/bin/../lib/gcc/arm-none-eabi/15.2.0/../../../../arm-none-eabi/lib/thumb\libg.a(libc_a-environ.o)
 .data.environ  0x00000000        0x4 C:/devkitPro/devkitARM/bin/../lib/gcc/arm-none-eabi/15.2.0/../../../../arm-none-eabi/lib/thumb\libg.a(libc_a-environ.o)
 .bss.initial_env
                0x00000000        0x4 C:/devkitPro/devkitARM/bin/../lib/gcc/arm-none-eabi/15.2.0/../../../../arm-none-eabi/lib/thumb\libg.a(libc_a-environ.o)
 .text          0x00000000        0x0 C:/devkitPro/devkitARM/bin/../lib/gcc/arm-none-eabi/15.2.0/../../../../arm-none-eabi/lib/thumb\libg.a(libc_a-abort.o)
 .data          0x00000000        0x0 C:/devkitPro/devkitARM/bin/../lib/gcc/arm-none-eabi/15.2.0/../../../../arm-none-eabi/lib/thumb\libg.a(libc_a-abort.o)
 .bss           0x00000000        0x0 C:/devkitPro/devkitARM/bin/../lib/gcc/arm-none-eabi/15.2.0/../../../../arm-none-eabi/lib/thumb\libg.a(libc_a-abort.o)
 .text          0x00000000        0x0 C:/devkitPro/devkitARM/bin/../lib/gcc/arm-none-eabi/15.2.0/../../../../arm-none-eabi/lib/thumb\libg.a(libc_a-callocr.o)
 .data          0x00000000        0x0 C:/devkitPro/devkitARM/bin/../lib/gcc/arm-none-eabi/15.2.0/../../../../arm-none-eabi/lib/thumb\libg.a(libc_a-callocr.o)
 .bss           0x00000000        0x0 C:/devkitPro/devkitARM/bin/../lib/gcc/arm-none-eabi/15.2.0/../../../../arm-none-eabi/lib/thumb\libg.a(libc_a-callocr.o)
 .text          0x00000000        0x0 C:/devkitPro/devkitARM/bin/../lib/gcc/arm-none-eabi/15.2.0/../../../../arm-none-eabi/lib/thumb\libg.a(libc_a-categories.o)
 .data          0x00000000        0x0 C:/devkitPro/devkitARM/bin/../lib/gcc/arm-none-eabi/15.2.0/../../../../arm-none-eabi/lib/thumb\libg.a(libc_a-categories.o)
 .bss           0x00000000        0x0 C:/devkitPro/devkitARM/bin/../lib/gcc/arm-none-eabi/15.2.0/../../../../arm-none-eabi/lib/thumb\libg.a(libc_a-categories.o)
 .text          0x00000000        0x0 C:/devkitPro/devkitARM/bin/../lib/gcc/arm-none-eabi/15.2.0/../../../../arm-none-eabi/lib/thumb\libg.a(libc_a-stpncpy.o)
 .data          0x00000000        0x0 C:/devkitPro/devkitARM/bin/../lib/gcc/arm-none-eabi/15.2.0/../../../../arm-none-eabi/lib/thumb\libg.a(libc_a-stpncpy.o)
 .bss           0x00000000        0x0 C:/devkitPro/devkitARM/bin/../lib/gcc/arm-none-eabi/15.2.0/../../../../arm-none-eabi/lib/thumb\libg.a(libc_a-stpncpy.o)
 .text          0x00000000        0x0 C:/devkitPro/devkitARM/bin/../lib/gcc/arm-none-eabi/15.2.0/../../../../arm-none-eabi/lib/thumb\libg.a(libc_a-gdtoa-hexnan.o)
 .data          0x00000000        0x0 C:/devkitPro/devkitARM/bin/../lib/gcc/arm-none-eabi/15.2.0/../../../../arm-none-eabi/lib/thumb\libg.a(libc_a-gdtoa-hexnan.o)
 .bss           0x00000000        0x0 C:/devkitPro/devkitARM/bin/../lib/gcc/arm-none-eabi/15.2.0/../../../../arm-none-eabi/lib/thumb\libg.a(libc_a-gdtoa-hexnan.o)
 .text          0x00000000        0x0 C:/devkitPro/devkitARM/bin/../lib/gcc/arm-none-eabi/15.2.0/../../../../arm-none-eabi/lib/thumb\libg.a(libm_a-s_nan.o)
 .data          0x00000000        0x0 C:/devkitPro/devkitARM/bin/../lib/gcc/arm-none-eabi/15.2.0/../../../../arm-none-eabi/lib/thumb\libg.a(libm_a-s_nan.o)
 .bss           0x00000000        0x0 C:/devkitPro/devkitARM/bin/../lib/gcc/arm-none-eabi/15.2.0/../../../../arm-none-eabi/lib/thumb\libg.a(libm_a-s_nan.o)
 .text          0x00000000        0x0 C:/devkitPro/devkitARM/bin/../lib/gcc/arm-none-eabi/15.2.0/../../../../arm-none-eabi/lib/thumb\libg.a(libc_a-signal.o)
 .data          0x00000000        0x0 C:/devkitPro/devkitARM/bin/../lib/gcc/arm-none-eabi/15.2.0/../../../../arm-none-eabi/lib/thumb\libg.a(libc_a-signal.o)
 .bss           0x00000000        0x0 C:/devkitPro/devkitARM/bin/../lib/gcc/arm-none-eabi/15.2.0/../../../../arm-none-eabi/lib/thumb\libg.a(libc_a-signal.o)
 .text._init_signal_r
                0x00000000       0x38 C:/devkitPro/devkitARM/bin/../lib/gcc/arm-none-eabi/15.2.0/../../../../arm-none-eabi/lib/thumb\libg.a(libc_a-signal.o)
 .text._signal_r
                0x00000000       0x50 C:/devkitPro/devkitARM/bin/../lib/gcc/arm-none-eabi/15.2.0/../../../../arm-none-eabi/lib/thumb\libg.a(libc_a-signal.o)
 .text.__sigtramp_r
                0x00000000       0x6c C:/devkitPro/devkitARM/bin/../lib/gcc/arm-none-eabi/15.2.0/../../../../arm-none-eabi/lib/thumb\libg.a(libc_a-signal.o)
 .text.signal   0x00000000       0x50 C:/devkitPro/devkitARM/bin/../lib/gcc/arm-none-eabi/15.2.0/../../../../arm-none-eabi/lib/thumb\libg.a(libc_a-signal.o)
 .text._init_signal
                0x00000000       0x3c C:/devkitPro/devkitARM/bin/../lib/gcc/arm-none-eabi/15.2.0/../../../../arm-none-eabi/lib/thumb\libg.a(libc_a-signal.o)
 .text.__sigtramp
                0x00000000       0x14 C:/devkitPro/devkitARM/bin/../lib/gcc/arm-none-eabi/15.2.0/../../../../arm-none-eabi/lib/thumb\libg.a(libc_a-signal.o)
 .text          0x00000000        0x0 C:/devkitPro/devkitARM/bin/../lib/gcc/arm-none-eabi/15.2.0/../../../../arm-none-eabi/lib/thumb\libsysbase.a(libsysbase_libsysbase_a-_exit.o)
 .data          0x00000000        0x0 C:/devkitPro/devkitARM/bin/../lib/gcc/arm-none-eabi/15.2.0/../../../../arm-none-eabi/lib/thumb\libsysbase.a(libsysbase_libsysbase_a-_exit.o)
 .bss           0x00000000        0x0 C:/devkitPro/devkitARM/bin/../lib/gcc/arm-none-eabi/15.2.0/../../../../arm-none-eabi/lib/thumb\libsysbase.a(libsysbase_libsysbase_a-_exit.o)
 .text          0x00000000        0x0 C:/devkitPro/devkitARM/bin/../lib/gcc/arm-none-eabi/15.2.0/../../../../arm-none-eabi/lib/thumb\libsysbase.a(libsysbase_libsysbase_a-fstat.o)
 .data          0x00000000        0x0 C:/devkitPro/devkitARM/bin/../lib/gcc/arm-none-eabi/15.2.0/../../../../arm-none-eabi/lib/thumb\libsysbase.a(libsysbase_libsysbase_a-fstat.o)
 .bss           0x00000000        0x0 C:/devkitPro/devkitARM/bin/../lib/gcc/arm-none-eabi/15.2.0/../../../../arm-none-eabi/lib/thumb\libsysbase.a(libsysbase_libsysbase_a-fstat.o)
 .text          0x00000000        0x0 C:/devkitPro/devkitARM/bin/../lib/gcc/arm-none-eabi/15.2.0/../../../../arm-none-eabi/lib/thumb\libsysbase.a(libsysbase_libsysbase_a-getpid.o)
 .data          0x00000000        0x0 C:/devkitPro/devkitARM/bin/../lib/gcc/arm-none-eabi/15.2.0/../../../../arm-none-eabi/lib/thumb\libsysbase.a(libsysbase_libsysbase_a-getpid.o)
 .bss           0x00000000        0x0 C:/devkitPro/devkitARM/bin/../lib/gcc/arm-none-eabi/15.2.0/../../../../arm-none-eabi/lib/thumb\libsysbase.a(libsysbase_libsysbase_a-getpid.o)
 .text          0x00000000        0x0 C:/devkitPro/devkitARM/bin/../lib/gcc/arm-none-eabi/15.2.0/../../../../arm-none-eabi/lib/thumb\libsysbase.a(libsysbase_libsysbase_a-getreent.o)
 .data          0x00000000        0x0 C:/devkitPro/devkitARM/bin/../lib/gcc/arm-none-eabi/15.2.0/../../../../arm-none-eabi/lib/thumb\libsysbase.a(libsysbase_libsysbase_a-getreent.o)
 .bss           0x00000000        0x0 C:/devkitPro/devkitARM/bin/../lib/gcc/arm-none-eabi/15.2.0/../../../../arm-none-eabi/lib/thumb\libsysbase.a(libsysbase_libsysbase_a-getreent.o)
 .text          0x00000000        0x0 C:/devkitPro/devkitARM/bin/../lib/gcc/arm-none-eabi/15.2.0/../../../../arm-none-eabi/lib/thumb\libsysbase.a(libsysbase_libsysbase_a-handle_manager.o)
 .data          0x00000000        0x0 C:/devkitPro/devkitARM/bin/../lib/gcc/arm-none-eabi/15.2.0/../../../../arm-none-eabi/lib/thumb\libsysbase.a(libsysbase_libsysbase_a-handle_manager.o)
 .bss           0x00000000        0x0 C:/devkitPro/devkitARM/bin/../lib/gcc/arm-none-eabi/15.2.0/../../../../arm-none-eabi/lib/thumb\libsysbase.a(libsysbase_libsysbase_a-handle_manager.o)
 .text.__release_handle
                0x00000000       0x6c C:/devkitPro/devkitARM/bin/../lib/gcc/arm-none-eabi/15.2.0/../../../../arm-none-eabi/lib/thumb\libsysbase.a(libsysbase_libsysbase_a-handle_manager.o)
 .text.__alloc_handle
                0x00000000       0x7c C:/devkitPro/devkitARM/bin/../lib/gcc/arm-none-eabi/15.2.0/../../../../arm-none-eabi/lib/thumb\libsysbase.a(libsysbase_libsysbase_a-handle_manager.o)
 .text.dup      0x00000000       0x68 C:/devkitPro/devkitARM/bin/../lib/gcc/arm-none-eabi/15.2.0/../../../../arm-none-eabi/lib/thumb\libsysbase.a(libsysbase_libsysbase_a-handle_manager.o)
 .text.dup2     0x00000000       0xe0 C:/devkitPro/devkitARM/bin/../lib/gcc/arm-none-eabi/15.2.0/../../../../arm-none-eabi/lib/thumb\libsysbase.a(libsysbase_libsysbase_a-handle_manager.o)
 .text          0x00000000        0x0 C:/devkitPro/devkitARM/bin/../lib/gcc/arm-none-eabi/15.2.0/../../../../arm-none-eabi/lib/thumb\libsysbase.a(libsysbase_libsysbase_a-iosupport.o)
 .data          0x00000000        0x0 C:/devkitPro/devkitARM/bin/../lib/gcc/arm-none-eabi/15.2.0/../../../../arm-none-eabi/lib/thumb\libsysbase.a(libsysbase_libsysbase_a-iosupport.o)
 .bss           0x00000000        0x0 C:/devkitPro/devkitARM/bin/../lib/gcc/arm-none-eabi/15.2.0/../../../../arm-none-eabi/lib/thumb\libsysbase.a(libsysbase_libsysbase_a-iosupport.o)
 .text.setDefaultDevice
                0x00000000       0x10 C:/devkitPro/devkitARM/bin/../lib/gcc/arm-none-eabi/15.2.0/../../../../arm-none-eabi/lib/thumb\libsysbase.a(libsysbase_libsysbase_a-iosupport.o)
 .text.FindDevice
                0x00000000       0x90 C:/devkitPro/devkitARM/bin/../lib/gcc/arm-none-eabi/15.2.0/../../../../arm-none-eabi/lib/thumb\libsysbase.a(libsysbase_libsysbase_a-iosupport.o)
 .text.RemoveDevice
                0x00000000       0x24 C:/devkitPro/devkitARM/bin/../lib/gcc/arm-none-eabi/15.2.0/../../../../arm-none-eabi/lib/thumb\libsysbase.a(libsysbase_libsysbase_a-iosupport.o)
 .text.AddDevice
                0x00000000       0x7c C:/devkitPro/devkitARM/bin/../lib/gcc/arm-none-eabi/15.2.0/../../../../arm-none-eabi/lib/thumb\libsysbase.a(libsysbase_libsysbase_a-iosupport.o)
 .text.GetDeviceOpTab
                0x00000000       0x20 C:/devkitPro/devkitARM/bin/../lib/gcc/arm-none-eabi/15.2.0/../../../../arm-none-eabi/lib/thumb\libsysbase.a(libsysbase_libsysbase_a-iosupport.o)
 .data.defaultDevice
                0x00000000        0x4 C:/devkitPro/devkitARM/bin/../lib/gcc/arm-none-eabi/15.2.0/../../../../arm-none-eabi/lib/thumb\libsysbase.a(libsysbase_libsysbase_a-iosupport.o)
 .text          0x00000000        0x0 C:/devkitPro/devkitARM/bin/../lib/gcc/arm-none-eabi/15.2.0/../../../../arm-none-eabi/lib/thumb\libsysbase.a(libsysbase_libsysbase_a-isatty.o)
 .data          0x00000000        0x0 C:/devkitPro/devkitARM/bin/../lib/gcc/arm-none-eabi/15.2.0/../../../../arm-none-eabi/lib/thumb\libsysbase.a(libsysbase_libsysbase_a-isatty.o)
 .bss           0x00000000        0x0 C:/devkitPro/devkitARM/bin/../lib/gcc/arm-none-eabi/15.2.0/../../../../arm-none-eabi/lib/thumb\libsysbase.a(libsysbase_libsysbase_a-isatty.o)
 .text          0x00000000        0x0 C:/devkitPro/devkitARM/bin/../lib/gcc/arm-none-eabi/15.2.0/../../../../arm-none-eabi/lib/thumb\libsysbase.a(libsysbase_libsysbase_a-kill.o)
 .data          0x00000000        0x0 C:/devkitPro/devkitARM/bin/../lib/gcc/arm-none-eabi/15.2.0/../../../../arm-none-eabi/lib/thumb\libsysbase.a(libsysbase_libsysbase_a-kill.o)
 .bss           0x00000000        0x0 C:/devkitPro/devkitARM/bin/../lib/gcc/arm-none-eabi/15.2.0/../../../../arm-none-eabi/lib/thumb\libsysbase.a(libsysbase_libsysbase_a-kill.o)
 .text          0x00000000        0x0 C:/devkitPro/devkitARM/bin/../lib/gcc/arm-none-eabi/15.2.0/../../../../arm-none-eabi/lib/thumb\libsysbase.a(libsysbase_libsysbase_a-lseek.o)
 .data          0x00000000        0x0 C:/devkitPro/devkitARM/bin/../lib/gcc/arm-none-eabi/15.2.0/../../../../arm-none-eabi/lib/thumb\libsysbase.a(libsysbase_libsysbase_a-lseek.o)
 .bss           0x00000000        0x0 C:/devkitPro/devkitARM/bin/../lib/gcc/arm-none-eabi/15.2.0/../../../../arm-none-eabi/lib/thumb\libsysbase.a(libsysbase_libsysbase_a-lseek.o)
 .text          0x00000000        0x0 C:/devkitPro/devkitARM/bin/../lib/gcc/arm-none-eabi/15.2.0/../../../../arm-none-eabi/lib/thumb\libsysbase.a(libsysbase_libsysbase_a-malloc_vars.o)
 .data          0x00000000        0x0 C:/devkitPro/devkitARM/bin/../lib/gcc/arm-none-eabi/15.2.0/../../../../arm-none-eabi/lib/thumb\libsysbase.a(libsysbase_libsysbase_a-malloc_vars.o)
 .bss           0x00000000        0x0 C:/devkitPro/devkitARM/bin/../lib/gcc/arm-none-eabi/15.2.0/../../../../arm-none-eabi/lib/thumb\libsysbase.a(libsysbase_libsysbase_a-malloc_vars.o)
 .text          0x00000000        0x0 C:/devkitPro/devkitARM/bin/../lib/gcc/arm-none-eabi/15.2.0/../../../../arm-none-eabi/lib/thumb\libsysbase.a(libsysbase_libsysbase_a-read.o)
 .data          0x00000000        0x0 C:/devkitPro/devkitARM/bin/../lib/gcc/arm-none-eabi/15.2.0/../../../../arm-none-eabi/lib/thumb\libsysbase.a(libsysbase_libsysbase_a-read.o)
 .bss           0x00000000        0x0 C:/devkitPro/devkitARM/bin/../lib/gcc/arm-none-eabi/15.2.0/../../../../arm-none-eabi/lib/thumb\libsysbase.a(libsysbase_libsysbase_a-read.o)
 .text          0x00000000        0x0 C:/devkitPro/devkitARM/bin/../lib/gcc/arm-none-eabi/15.2.0/../../../../arm-none-eabi/lib/thumb\libsysbase.a(libsysbase_libsysbase_a-sbrk.o)
 .data          0x00000000        0x0 C:/devkitPro/devkitARM/bin/../lib/gcc/arm-none-eabi/15.2.0/../../../../arm-none-eabi/lib/thumb\libsysbase.a(libsysbase_libsysbase_a-sbrk.o)
 .bss           0x00000000        0x0 C:/devkitPro/devkitARM/bin/../lib/gcc/arm-none-eabi/15.2.0/../../../../arm-none-eabi/lib/thumb\libsysbase.a(libsysbase_libsysbase_a-sbrk.o)
 .text          0x00000000        0x0 C:/devkitPro/devkitARM/bin/../lib/gcc/arm-none-eabi/15.2.0/../../../../arm-none-eabi/lib/thumb\libsysbase.a(libsysbase_libsysbase_a-syscall_support.o)
 .data          0x00000000        0x0 C:/devkitPro/devkitARM/bin/../lib/gcc/arm-none-eabi/15.2.0/../../../../arm-none-eabi/lib/thumb\libsysbase.a(libsysbase_libsysbase_a-syscall_support.o)
 .bss           0x00000000        0x0 C:/devkitPro/devkitARM/bin/../lib/gcc/arm-none-eabi/15.2.0/../../../../arm-none-eabi/lib/thumb\libsysbase.a(libsysbase_libsysbase_a-syscall_support.o)
 .text.timespec2nsec
                0x00000000       0x24 C:/devkitPro/devkitARM/bin/../lib/gcc/arm-none-eabi/15.2.0/../../../../arm-none-eabi/lib/thumb\libsysbase.a(libsysbase_libsysbase_a-syscall_support.o)
 .text.abstimespec2nsec
                0x00000000       0xc4 C:/devkitPro/devkitARM/bin/../lib/gcc/arm-none-eabi/15.2.0/../../../../arm-none-eabi/lib/thumb\libsysbase.a(libsysbase_libsysbase_a-syscall_support.o)
 .text.__libc_lock_try_acquire
                0x00000000       0x1c C:/devkitPro/devkitARM/bin/../lib/gcc/arm-none-eabi/15.2.0/../../../../arm-none-eabi/lib/thumb\libsysbase.a(libsysbase_libsysbase_a-syscall_support.o)
 .text.__libc_lock_try_acquire_recursive
                0x00000000       0x1c C:/devkitPro/devkitARM/bin/../lib/gcc/arm-none-eabi/15.2.0/../../../../arm-none-eabi/lib/thumb\libsysbase.a(libsysbase_libsysbase_a-syscall_support.o)
 .text.__libc_cond_signal
                0x00000000       0x1c C:/devkitPro/devkitARM/bin/../lib/gcc/arm-none-eabi/15.2.0/../../../../arm-none-eabi/lib/thumb\libsysbase.a(libsysbase_libsysbase_a-syscall_support.o)
 .text.__libc_cond_broadcast
                0x00000000       0x1c C:/devkitPro/devkitARM/bin/../lib/gcc/arm-none-eabi/15.2.0/../../../../arm-none-eabi/lib/thumb\libsysbase.a(libsysbase_libsysbase_a-syscall_support.o)
 .text.__libc_cond_wait
                0x00000000       0x20 C:/devkitPro/devkitARM/bin/../lib/gcc/arm-none-eabi/15.2.0/../../../../arm-none-eabi/lib/thumb\libsysbase.a(libsysbase_libsysbase_a-syscall_support.o)
 .text.__libc_cond_wait_recursive
                0x00000000       0x20 C:/devkitPro/devkitARM/bin/../lib/gcc/arm-none-eabi/15.2.0/../../../../arm-none-eabi/lib/thumb\libsysbase.a(libsysbase_libsysbase_a-syscall_support.o)
 .text          0x00000000        0x0 C:/devkitPro/devkitARM/bin/../lib/gcc/arm-none-eabi/15.2.0/../../../../arm-none-eabi/lib/thumb\libsysbase.a(libsysbase_libsysbase_a-write.o)
 .data          0x00000000        0x0 C:/devkitPro/devkitARM/bin/../lib/gcc/arm-none-eabi/15.2.0/../../../../arm-none-eabi/lib/thumb\libsysbase.a(libsysbase_libsysbase_a-write.o)
 .bss           0x00000000        0x0 C:/devkitPro/devkitARM/bin/../lib/gcc/arm-none-eabi/15.2.0/../../../../arm-none-eabi/lib/thumb\libsysbase.a(libsysbase_libsysbase_a-write.o)
 .text          0x00000000        0x0 C:/devkitPro/devkitARM/bin/../lib/gcc/arm-none-eabi/15.2.0/../../../../arm-none-eabi/lib/thumb\libsysbase.a(libsysbase_libsysbase_a-clocks.o)
 .data          0x00000000        0x0 C:/devkitPro/devkitARM/bin/../lib/gcc/arm-none-eabi/15.2.0/../../../../arm-none-eabi/lib/thumb\libsysbase.a(libsysbase_libsysbase_a-clocks.o)
 .bss           0x00000000        0x0 C:/devkitPro/devkitARM/bin/../lib/gcc/arm-none-eabi/15.2.0/../../../../arm-none-eabi/lib/thumb\libsysbase.a(libsysbase_libsysbase_a-clocks.o)
 .text.clock_gettime
                0x00000000       0x24 C:/devkitPro/devkitARM/bin/../lib/gcc/arm-none-eabi/15.2.0/../../../../arm-none-eabi/lib/thumb\libsysbase.a(libsysbase_libsysbase_a-clocks.o)
 .text.clock_settime
                0x00000000       0x24 C:/devkitPro/devkitARM/bin/../lib/gcc/arm-none-eabi/15.2.0/../../../../arm-none-eabi/lib/thumb\libsysbase.a(libsysbase_libsysbase_a-clocks.o)
 .text.clock_getres
                0x00000000       0x24 C:/devkitPro/devkitARM/bin/../lib/gcc/arm-none-eabi/15.2.0/../../../../arm-none-eabi/lib/thumb\libsysbase.a(libsysbase_libsysbase_a-clocks.o)
 .data          0x00000000        0x0 C:/devkitPro/devkitARM/bin/../lib/gcc/arm-none-eabi/15.2.0/thumb\libgcc.a(_thumb1_case_uqi.o)
 .bss           0x00000000        0x0 C:/devkitPro/devkitARM/bin/../lib/gcc/arm-none-eabi/15.2.0/thumb\libgcc.a(_thumb1_case_uqi.o)
 .data          0x00000000        0x0 C:/devkitPro/devkitARM/bin/../lib/gcc/arm-none-eabi/15.2.0/thumb\libgcc.a(_thumb1_case_uhi.o)
 .bss           0x00000000        0x0 C:/devkitPro/devkitARM/bin/../lib/gcc/arm-none-eabi/15.2.0/thumb\libgcc.a(_thumb1_case_uhi.o)
 .text          0x00000000      0x290 C:/devkitPro/devkitARM/bin/../lib/gcc/arm-none-eabi/15.2.0/thumb\libgcc.a(_arm_muldf3.o)
 .data          0x00000000        0x0 C:/devkitPro/devkitARM/bin/../lib/gcc/arm-none-eabi/15.2.0/thumb\libgcc.a(_arm_muldf3.o)
 .bss           0x00000000        0x0 C:/devkitPro/devkitARM/bin/../lib/gcc/arm-none-eabi/15.2.0/thumb\libgcc.a(_arm_muldf3.o)
 .debug_line    0x00000000       0xe4 C:/devkitPro/devkitARM/bin/../lib/gcc/arm-none-eabi/15.2.0/thumb\libgcc.a(_arm_muldf3.o)
 .debug_line_str
                0x00000000       0xce C:/devkitPro/devkitARM/bin/../lib/gcc/arm-none-eabi/15.2.0/thumb\libgcc.a(_arm_muldf3.o)
 .debug_info    0x00000000       0x3f C:/devkitPro/devkitARM/bin/../lib/gcc/arm-none-eabi/15.2.0/thumb\libgcc.a(_arm_muldf3.o)
 .debug_abbrev  0x00000000       0x26 C:/devkitPro/devkitARM/bin/../lib/gcc/arm-none-eabi/15.2.0/thumb\libgcc.a(_arm_muldf3.o)
 .debug_aranges
                0x00000000       0x20 C:/devkitPro/devkitARM/bin/../lib/gcc/arm-none-eabi/15.2.0/thumb\libgcc.a(_arm_muldf3.o)
 .debug_str     0x00000000       0xf2 C:/devkitPro/devkitARM/bin/../lib/gcc/arm-none-eabi/15.2.0/thumb\libgcc.a(_arm_muldf3.o)
 .debug_frame   0x00000000       0x30 C:/devkitPro/devkitARM/bin/../lib/gcc/arm-none-eabi/15.2.0/thumb\libgcc.a(_arm_muldf3.o)
 .data          0x00000000        0x0 C:/devkitPro/devkitARM/bin/../lib/gcc/arm-none-eabi/15.2.0/thumb\libgcc.a(_udivsi3.o)
 .bss           0x00000000        0x0 C:/devkitPro/devkitARM/bin/../lib/gcc/arm-none-eabi/15.2.0/thumb\libgcc.a(_udivsi3.o)
 .data          0x00000000        0x0 C:/devkitPro/devkitARM/bin/../lib/gcc/arm-none-eabi/15.2.0/thumb\libgcc.a(_arm_addsubdf3.o)
 .bss           0x00000000        0x0 C:/devkitPro/devkitARM/bin/../lib/gcc/arm-none-eabi/15.2.0/thumb\libgcc.a(_arm_addsubdf3.o)
 .data          0x00000000        0x0 C:/devkitPro/devkitARM/bin/../lib/gcc/arm-none-eabi/15.2.0/thumb\libgcc.a(_arm_muldivdf3.o)
 .bss           0x00000000        0x0 C:/devkitPro/devkitARM/bin/../lib/gcc/arm-none-eabi/15.2.0/thumb\libgcc.a(_arm_muldivdf3.o)
 .data          0x00000000        0x0 C:/devkitPro/devkitARM/bin/../lib/gcc/arm-none-eabi/15.2.0/thumb\libgcc.a(_arm_cmpdf2.o)
 .bss           0x00000000        0x0 C:/devkitPro/devkitARM/bin/../lib/gcc/arm-none-eabi/15.2.0/thumb\libgcc.a(_arm_cmpdf2.o)
 .data          0x00000000        0x0 C:/devkitPro/devkitARM/bin/../lib/gcc/arm-none-eabi/15.2.0/thumb\libgcc.a(_arm_unorddf2.o)
 .bss           0x00000000        0x0 C:/devkitPro/devkitARM/bin/../lib/gcc/arm-none-eabi/15.2.0/thumb\libgcc.a(_arm_unorddf2.o)
 .data          0x00000000        0x0 C:/devkitPro/devkitARM/bin/../lib/gcc/arm-none-eabi/15.2.0/thumb\libgcc.a(_arm_fixdfsi.o)
 .bss           0x00000000        0x0 C:/devkitPro/devkitARM/bin/../lib/gcc/arm-none-eabi/15.2.0/thumb\libgcc.a(_arm_fixdfsi.o)
 .data          0x00000000        0x0 C:/devkitPro/devkitARM/bin/../lib/gcc/arm-none-eabi/15.2.0/thumb\libgcc.a(_arm_fixunsdfsi.o)
 .bss           0x00000000        0x0 C:/devkitPro/devkitARM/bin/../lib/gcc/arm-none-eabi/15.2.0/thumb\libgcc.a(_arm_fixunsdfsi.o)
 .data          0x00000000        0x0 C:/devkitPro/devkitARM/bin/../lib/gcc/arm-none-eabi/15.2.0/thumb\libgcc.a(_arm_truncdfsf2.o)
 .bss           0x00000000        0x0 C:/devkitPro/devkitARM/bin/../lib/gcc/arm-none-eabi/15.2.0/thumb\libgcc.a(_arm_truncdfsf2.o)
 .text          0x00000000       0x38 C:/devkitPro/devkitARM/bin/../lib/gcc/arm-none-eabi/15.2.0/thumb\libgcc.a(_arm_unordsf2.o)
 .data          0x00000000        0x0 C:/devkitPro/devkitARM/bin/../lib/gcc/arm-none-eabi/15.2.0/thumb\libgcc.a(_arm_unordsf2.o)
 .bss           0x00000000        0x0 C:/devkitPro/devkitARM/bin/../lib/gcc/arm-none-eabi/15.2.0/thumb\libgcc.a(_arm_unordsf2.o)
 .debug_line    0x00000000       0x57 C:/devkitPro/devkitARM/bin/../lib/gcc/arm-none-eabi/15.2.0/thumb\libgcc.a(_arm_unordsf2.o)
 .debug_line_str
                0x00000000       0xce C:/devkitPro/devkitARM/bin/../lib/gcc/arm-none-eabi/15.2.0/thumb\libgcc.a(_arm_unordsf2.o)
 .debug_info    0x00000000       0x3c C:/devkitPro/devkitARM/bin/../lib/gcc/arm-none-eabi/15.2.0/thumb\libgcc.a(_arm_unordsf2.o)
 .debug_abbrev  0x00000000       0x28 C:/devkitPro/devkitARM/bin/../lib/gcc/arm-none-eabi/15.2.0/thumb\libgcc.a(_arm_unordsf2.o)
 .debug_aranges
                0x00000000       0x20 C:/devkitPro/devkitARM/bin/../lib/gcc/arm-none-eabi/15.2.0/thumb\libgcc.a(_arm_unordsf2.o)
 .debug_str     0x00000000       0xf6 C:/devkitPro/devkitARM/bin/../lib/gcc/arm-none-eabi/15.2.0/thumb\libgcc.a(_arm_unordsf2.o)
 .debug_frame   0x00000000       0x24 C:/devkitPro/devkitARM/bin/../lib/gcc/arm-none-eabi/15.2.0/thumb\libgcc.a(_arm_unordsf2.o)
 .text          0x00000000        0x0 C:/devkitPro/devkitARM/bin/../lib/gcc/arm-none-eabi/15.2.0/thumb\libgcc.a(_muldi3.o)
 .data          0x00000000        0x0 C:/devkitPro/devkitARM/bin/../lib/gcc/arm-none-eabi/15.2.0/thumb\libgcc.a(_muldi3.o)
 .bss           0x00000000        0x0 C:/devkitPro/devkitARM/bin/../lib/gcc/arm-none-eabi/15.2.0/thumb\libgcc.a(_muldi3.o)
 .text          0x00000000        0x0 C:/devkitPro/devkitARM/bin/../lib/gcc/arm-none-eabi/15.2.0/thumb\libgcc.a(_fixdfdi.o)
 .data          0x00000000        0x0 C:/devkitPro/devkitARM/bin/../lib/gcc/arm-none-eabi/15.2.0/thumb\libgcc.a(_fixdfdi.o)
 .bss           0x00000000        0x0 C:/devkitPro/devkitARM/bin/../lib/gcc/arm-none-eabi/15.2.0/thumb\libgcc.a(_fixdfdi.o)
 .text          0x00000000        0x0 C:/devkitPro/devkitARM/bin/../lib/gcc/arm-none-eabi/15.2.0/thumb\libgcc.a(_fixunsdfdi.o)
 .data          0x00000000        0x0 C:/devkitPro/devkitARM/bin/../lib/gcc/arm-none-eabi/15.2.0/thumb\libgcc.a(_fixunsdfdi.o)
 .bss           0x00000000        0x0 C:/devkitPro/devkitARM/bin/../lib/gcc/arm-none-eabi/15.2.0/thumb\libgcc.a(_fixunsdfdi.o)
 .text          0x00000000        0x0 C:/devkitPro/devkitARM/bin/../lib/gcc/arm-none-eabi/15.2.0/thumb/crtend.o
 .data          0x00000000        0x0 C:/devkitPro/devkitARM/bin/../lib/gcc/arm-none-eabi/15.2.0/thumb/crtend.o
 .bss           0x00000000        0x0 C:/devkitPro/devkitARM/bin/../lib/gcc/arm-none-eabi/15.2.0/thumb/crtend.o
 .rodata.all_implied_fbits
                0x00000000       0x24 C:/devkitPro/devkitARM/bin/../lib/gcc/arm-none-eabi/15.2.0/thumb/crtend.o
 .text          0x00000000        0x0 C:/devkitPro/devkitARM/bin/../lib/gcc/arm-none-eabi/15.2.0/thumb/crtn.o
 .data          0x00000000        0x0 C:/devkitPro/devkitARM/bin/../lib/gcc/arm-none-eabi/15.2.0/thumb/crtn.o
 .bss           0x00000000        0x0 C:/devkitPro/devkitARM/bin/../lib/gcc/arm-none-eabi/15.2.0/thumb/crtn.o

Memory Configuration

Name             Origin             Length             Attributes
lma9             0x02004000         0x0027c000
lma9i            0x02400000         0x00280000
vectors          0x00000000         0x00000020
itcm             0x01ff8020         0x00007fe0
main             0x02001000         0x00f7f000
dtcm             0x02ff0000         0x00003e80
dldi             0x0380b000         0x00004000
stub             0x0e000000         0x00004000
tls              0x00000000         0x00000400
*default*        0x00000000         0xffffffff

Linker script and memory map

                0x00000000                        __sync_synchronize = __sync_synchronize_none
LOAD C:/devkitPro/devkitARM/bin/../lib/gcc/arm-none-eabi/15.2.0/thumb/crti.o
LOAD C:/devkitPro/devkitARM/bin/../lib/gcc/arm-none-eabi/15.2.0/thumb/crtbegin.o
LOAD main.o
LOAD C:/devkitPro/libnds/lib\libdswifi9.a
LOAD C:/devkitPro/libnds/lib\libnds9.a
LOAD C:/devkitPro/calico/lib\libcalico_ds9.a
START GROUP
LOAD C:/devkitPro/devkitARM/bin/../lib/gcc/arm-none-eabi/15.2.0/thumb\libgcc.a
LOAD C:/devkitPro/devkitARM/bin/../lib/gcc/arm-none-eabi/15.2.0/../../../../arm-none-eabi/lib/thumb\libg.a
LOAD C:/devkitPro/devkitARM/bin/../lib/gcc/arm-none-eabi/15.2.0/../../../../arm-none-eabi/lib/thumb\libc.a
LOAD C:/devkitPro/devkitARM/bin/../lib/gcc/arm-none-eabi/15.2.0/../../../../arm-none-eabi/lib/thumb\libsysbase.a
END GROUP
LOAD C:/devkitPro/devkitARM/bin/../lib/gcc/arm-none-eabi/15.2.0/thumb/crtend.o
LOAD C:/devkitPro/devkitARM/bin/../lib/gcc/arm-none-eabi/15.2.0/thumb/crtn.o
                0x02ff3e80                        PROVIDE (__sp_usr = (ORIGIN (dtcm) + LENGTH (dtcm)))
                0x02ff3f80                        PROVIDE (__sp_irq = (__sp_usr + 0x100))
                0x02ff3fc0                        PROVIDE (__sp_svc = (__sp_irq + 0x40))
                0x02ff3ff8                        PROVIDE (__irq_flags = (__sp_svc + 0x38))
                [!provide]                        PROVIDE (__irq_vector = (__sp_svc + 0x3c))
                [!provide]                        PROVIDE (__arm_excpt_rst = 0xffff0000)
                [!provide]                        PROVIDE (__arm_excpt_und = 0xffff0004)
                0xffff0008                        PROVIDE (__arm_excpt_svc = 0xffff0008)
                [!provide]                        PROVIDE (__arm_excpt_pabt = 0xffff000c)
                [!provide]                        PROVIDE (__arm_excpt_dabt = 0xffff0010)
                [!provide]                        PROVIDE (__arm_excpt_irq = 0xffff0018)
                [!provide]                        PROVIDE (__arm_excpt_fiq = 0xffff001c)
                0x00000000                        PROVIDE (__end__ = 0x0)

.secure         0x0e000000      0x800 load address 0x02004000
                0x0e0007fc                        . = (. + 0x7fc)
 *fill*         0x0e000000      0x7fc 00000000
                0x0e0007fc        0x4 LONG 0x0

.bootstub       0x0e000800      0x198 load address 0x02004800
 *(.bootstub .bootstub.*)
 .bootstub.__ds9_bootstub
                0x0e000800      0x198 C:/devkitPro/calico/lib\libcalico_ds9.a(bootstub_arm9.o)
                0x0e000800                __ds9_bootstub
                0x0e000998                        . = ALIGN (0x4)

.crt0           0x02001000      0x3c0 load address 0x02004998
 *(.crt0 .crt0.*)
 .crt0.__ds9_bootstub_trampoline
                0x02001000       0x60 C:/devkitPro/calico/lib\libcalico_ds9.a(bootstub_arm9.o)
 *.crt0.*(.text .stub .text.* .gnu.linkonce.t.*)
 .text.crt0ProcessLoadList
                0x02001060       0x74 C:/devkitPro/calico/lib\libcalico_ds9.a(startup.crt0.o)
                0x02001060                crt0ProcessLoadList
 .text.crt0Startup
                0x020010d4      0x180 C:/devkitPro/calico/lib\libcalico_ds9.a(startup.crt0.o)
                0x020010d4                crt0Startup
 .text.crt0CopyMem32
                0x02001254       0x4c C:/devkitPro/calico/lib\libcalico_ds9.a(utils.crt0.o)
                0x02001254                crt0CopyMem32
 .text.crt0FillMem32
                0x020012a0       0x58 C:/devkitPro/calico/lib\libcalico_ds9.a(utils.crt0.o)
                0x020012a0                crt0FillMem32
 .text.crt0SetupMPU
                0x020012f8       0xb4 C:/devkitPro/calico/lib\libcalico_ds9.a(mpu_setup.crt0.o)
                0x020012f8                crt0SetupMPU
 *.crt0.*(.glue_7t .glue_7 .vfp11_veneer .v4_bx)
 *.crt0.*(.rodata .rodata.* .gnu.linkonce.r.*)
 *.crt0.*(.rodata1)
                0x020013c0                        . = ALIGN (0x20)
 *fill*         0x020013ac       0x14 ff
                0x02004998                        PROVIDE (__crt0_lma = LOADADDR (.crt0))
                0x02001000                        PROVIDE (__crt0_start = ADDR (.crt0))
                0x020013c0                        PROVIDE (__crt0_end = (ADDR (.crt0) + SIZEOF (.crt0)))
                0x00000001                        ASSERT (((__crt0_end <= LOADADDR (.bootstub)) || (__crt0_start >= (LOADADDR (.bootstub) + SIZEOF (.bootstub)))), Error: crt0 section overlaps initial bootstrap)

.dldi           0x0380b000        0x0 load address 0x02004d58
 *(.dldi)
                0x00000000                        PROVIDE (__dldi_lma = SIZEOF (.dldi)?LOADADDR (.dldi):0x0)

.vectors        0x00000000       0x20 load address 0x02004d58
 *(.vectors)
 .vectors       0x00000000       0x20 C:/devkitPro/calico/lib\libcalico_ds9.a(bootstub_arm9.o)

.itcm           0x01ff8020      0x8bc load address 0x02004d78
 *(.itcm .itcm.*)
 .itcm          0x01ff8020       0x30 C:/devkitPro/calico/lib\libcalico_ds9.a(bootstub_arm9.o)
                0x01ff8038                __excpt_vectors
 *.itcm.*(.text .stub .text.* .gnu.linkonce.t.*)
 *.32.o(.text .stub .text.* .gnu.linkonce.t.*)
 .text.threadReschedule
                0x01ff8050       0x88 C:/devkitPro/calico/lib\libcalico_ds9.a(thread_hot.32.o)
 .text.threadBlock
                0x01ff80d8       0xd8 C:/devkitPro/calico/lib\libcalico_ds9.a(thread_hot.32.o)
                0x01ff80d8                threadBlock
 .text.threadUnblockOneByValue
                0x01ff81b0       0xc0 C:/devkitPro/calico/lib\libcalico_ds9.a(thread_hot.32.o)
                0x01ff81b0                threadUnblockOneByValue
 .text.threadUnblockAllByValue
                0x01ff8270      0x130 C:/devkitPro/calico/lib\libcalico_ds9.a(thread_hot.32.o)
                0x01ff8270                threadUnblockAllByValue
 .text.threadUnblockAllByMask
                0x01ff83a0      0x134 C:/devkitPro/calico/lib\libcalico_ds9.a(thread_hot.32.o)
                0x01ff83a0                threadUnblockAllByMask
 .text.armCopyMem32
                0x01ff84d4       0x4c C:/devkitPro/calico/lib\libcalico_ds9.a(arm-copy-fill.32.o)
                0x01ff84d4                armCopyMem32
 .text.armFillMem32
                0x01ff8520       0x58 C:/devkitPro/calico/lib\libcalico_ds9.a(arm-copy-fill.32.o)
                0x01ff8520                armFillMem32
 .text.armContextSave
                0x01ff8578       0x2c C:/devkitPro/calico/lib\libcalico_ds9.a(arm-context.32.o)
                0x01ff8578                armContextSave
 .text.armContextLoad
                0x01ff85a4       0x20 C:/devkitPro/calico/lib\libcalico_ds9.a(arm-context.32.o)
                0x01ff85a4                armContextLoad
                0x01ff85a8                armContextLoadFromSvc
 .text.armWaitForIrq
                0x01ff85c4        0x8 C:/devkitPro/calico/lib\libcalico_ds9.a(arm-shims.32.o)
                0x01ff85c4                armWaitForIrq
 .text.__excpt_entry
                0x01ff85cc       0x50 C:/devkitPro/calico/lib\libcalico_ds9.a(excpt_handler.32.o)
                0x01ff85cc                __arm_excpt_rst
                0x01ff85d0                __arm_excpt_pabt
                0x01ff85d4                __arm_excpt_und
                0x01ff85e0                __arm_excpt_dabt
 .text.armDrainWriteBuffer
                0x01ff861c        0xc C:/devkitPro/calico/lib\libcalico_ds9.a(arm-cache.32.o)
                0x01ff861c                armDrainWriteBuffer
 .text.armDCacheFlushAll
                0x01ff8628       0x28 C:/devkitPro/calico/lib\libcalico_ds9.a(arm-cache.32.o)
                0x01ff8628                armDCacheFlushAll
 .text.armDCacheFlush
                0x01ff8650       0x1c C:/devkitPro/calico/lib\libcalico_ds9.a(arm-cache.32.o)
                0x01ff8650                armDCacheFlush
 .text.armDCacheInvalidate
                0x01ff866c       0x1c C:/devkitPro/calico/lib\libcalico_ds9.a(arm-cache.32.o)
                0x01ff866c                armDCacheInvalidate
 .text.armICacheInvalidateAll
                0x01ff8688        0xc C:/devkitPro/calico/lib\libcalico_ds9.a(arm-cache.32.o)
                0x01ff8688                armICacheInvalidateAll
 .text.__arm_excpt_irq
                0x01ff8694       0xe4 C:/devkitPro/calico/lib\libcalico_ds9.a(irq_handler.32.o)
                0x01ff8694                __arm_excpt_irq
 .text.smutexLock
                0x01ff8778       0xbc C:/devkitPro/calico/lib\libcalico_ds9.a(smutex.32.o)
                0x01ff8778                smutexLock
 .text.smutexUnlock
                0x01ff8834       0xa8 C:/devkitPro/calico/lib\libcalico_ds9.a(smutex.32.o)
                0x01ff8834                smutexUnlock
 *.itcm.*(.glue_7t .glue_7 .vfp11_veneer .v4_bx)
 *.32.o(.glue_7t .glue_7 .vfp11_veneer .v4_bx)
 *.itcm.*(.rodata .rodata.* .gnu.linkonce.r.*)
 *.32.o(.rodata .rodata.* .gnu.linkonce.r.*)
 *.itcm.*(.rodata1)
 *.32.o(.rodata1)
                0x01ff88dc                        . = ALIGN (0x4)
                0x02004d58                        PROVIDE (__itcm_lma = LOADADDR (.vectors))
                0x01ff8000                        PROVIDE (__itcm_start = (ADDR (.itcm) - SIZEOF (.vectors)))
                0x01ff88dc                        PROVIDE (__itcm_end = (ADDR (.itcm) + SIZEOF (.itcm)))
                0x00000001                        ASSERT (((__itcm_lma + SIZEOF (.vectors)) == LOADADDR (.itcm)), Error: gap between vectors and itcm)

.dtcm           0x02ff0000        0x0 load address 0x02005634
 *(.dtcm .dtcm.*)
 *.32.o(.data .data.* .gnu.linkonce.d.*)
 *.32.o(.data1)
                0x02ff0000                        . = ALIGN (0x4)
                [!provide]                        PROVIDE (__dtcm_lma = LOADADDR (.dtcm))
                0x02ff0000                        PROVIDE (__dtcm_start = ADDR (.dtcm))
                0x02ff0000                        PROVIDE (__dtcm_end = (ADDR (.dtcm) + SIZEOF (.dtcm)))

.dtcm.bss       0x02ff0000       0xa0 load address 0x02005634
 *(.sbss .sbss.*)
 *.32.o(.dynbss)
 *.32.o(.bss .bss.* .gnu.linkonce.b.*)
 .bss.__irq_table
                0x02ff0000       0x80 C:/devkitPro/calico/lib\libcalico_ds9.a(thread_hot.32.o)
                0x02ff0000                __irq_table
 .bss.__sched_state
                0x02ff0080       0x18 C:/devkitPro/calico/lib\libcalico_ds9.a(thread_hot.32.o)
                0x02ff0080                __sched_state
 .bss.s_smutexWaitList
                0x02ff0098        0x8 C:/devkitPro/calico/lib\libcalico_ds9.a(smutex.32.o)
 *.32.o(COMMON)
                0x02ff00a0                        . = ALIGN (0x4)
                [!provide]                        PROVIDE (__dtcm_bss_start = ADDR (.dtcm.bss))
                0x02ff00a0                        PROVIDE (__dtcm_bss_end = (ADDR (.dtcm.bss) + SIZEOF (.dtcm.bss)))

.main           0x020013c0    0x1e80c load address 0x02005634
 *(SORT_NONE(.init))
 .init          0x020013c0        0x4 C:/devkitPro/devkitARM/bin/../lib/gcc/arm-none-eabi/15.2.0/thumb/crti.o
                0x020013c0                _init
 .init          0x020013c4        0x8 C:/devkitPro/devkitARM/bin/../lib/gcc/arm-none-eabi/15.2.0/thumb/crtn.o
 EXCLUDE_FILE(*.twl.*) *(.text.unlikely .text.*_unlikely .text.unlikely.*)
 EXCLUDE_FILE(*.twl.*) *(.text.exit .text.exit.*)
 .text.exit     0x020013cc       0x24 C:/devkitPro/devkitARM/bin/../lib/gcc/arm-none-eabi/15.2.0/../../../../arm-none-eabi/lib/thumb\libg.a(libc_a-exit.o)
                0x020013cc                exit
 EXCLUDE_FILE(*.twl.*) *(.text.startup .text.startup.*)
 .text.startup  0x020013f0      0x268 main.o
                0x020013f0                main
 EXCLUDE_FILE(*.twl.*) *(.text.hot .text.hot.*)
 EXCLUDE_FILE(*.twl.*) *(.text .iplt .stub .text.* .gnu.linkonce.t.*)
 .text.__do_global_dtors_aux
                0x02001658       0x2c C:/devkitPro/devkitARM/bin/../lib/gcc/arm-none-eabi/15.2.0/thumb/crtbegin.o
 .text.frame_dummy
                0x02001684       0x24 C:/devkitPro/devkitARM/bin/../lib/gcc/arm-none-eabi/15.2.0/thumb/crtbegin.o
 .iplt          0x020016a8        0x0 C:/devkitPro/devkitARM/bin/../lib/gcc/arm-none-eabi/15.2.0/thumb/crtbegin.o
 .text          0x020016a8      0x3d8 main.o
                0x020016a8                vblankHandler
                0x020016b8                connectWifi
                0x0200171c                httpGet
                0x020018fc                extractHttpBody
                0x02001928                displayTemperatures
 .text.Wifi_InitDefault
                0x02001a80       0x70 C:/devkitPro/libnds/lib\libdswifi9.a(dswifi9.o)
                0x02001a80                Wifi_InitDefault
 .text.Wifi_AutoConnect
                0x02001af0       0x10 C:/devkitPro/libnds/lib\libdswifi9.a(dswifi9.o)
                0x02001af0                Wifi_AutoConnect
 .text.Wifi_AssocStatus
                0x02001b00        0xc C:/devkitPro/libnds/lib\libdswifi9.a(dswifi9.o)
                0x02001b00                Wifi_AssocStatus
 .text.Wifi_GetIPInfo
                0x02001b0c        0x4 C:/devkitPro/libnds/lib\libdswifi9.a(dswifi9.o)
                0x02001b0c                Wifi_GetIPInfo
 .text.sgIP_DHCP_Init
                0x02001b10       0x6c C:/devkitPro/libnds/lib\libdswifi9.a(sgIP_DHCP.o)
                0x02001b10                sgIP_DHCP_Init
 .text.sgIP_DHCP_SendDgram
                0x02001b7c       0xa0 C:/devkitPro/libnds/lib\libdswifi9.a(sgIP_DHCP.o)
                0x02001b7c                sgIP_DHCP_SendDgram
 .text.sgIP_DHCP_BeginDgram
                0x02001c1c      0x28c C:/devkitPro/libnds/lib\libdswifi9.a(sgIP_DHCP.o)
                0x02001c1c                sgIP_DHCP_BeginDgram
 .text.sgIP_DHCP_Start
                0x02001ea8      0x15c C:/devkitPro/libnds/lib\libdswifi9.a(sgIP_DHCP.o)
                0x02001ea8                sgIP_DHCP_Start
 .text.sgIP_DHCP_Update
                0x02002004      0x550 C:/devkitPro/libnds/lib\libdswifi9.a(sgIP_DHCP.o)
                0x02002004                sgIP_DHCP_Update
 .text.sgIP_ntoa
                0x02002554       0xbc C:/devkitPro/libnds/lib\libdswifi9.a(sgIP_DNS.o)
 .text.sgIP_DNS_Init
                0x02002610       0x44 C:/devkitPro/libnds/lib\libdswifi9.a(sgIP_DNS.o)
                0x02002610                sgIP_DNS_Init
 .text.sgIP_DNS_Timer1000ms
                0x02002654       0x5c C:/devkitPro/libnds/lib\libdswifi9.a(sgIP_DNS.o)
                0x02002654                sgIP_DNS_Timer1000ms
 .text.sgIP_DNS_isipaddress
                0x020026b0      0x2b4 C:/devkitPro/libnds/lib\libdswifi9.a(sgIP_DNS.o)
                0x020026b0                sgIP_DNS_isipaddress
 .text.inet_aton
                0x02002964       0x28 C:/devkitPro/libnds/lib\libdswifi9.a(sgIP_DNS.o)
                0x02002964                inet_aton
 .text.inet_ntoa
                0x0200298c       0x14 C:/devkitPro/libnds/lib\libdswifi9.a(sgIP_DNS.o)
                0x0200298c                inet_ntoa
 .text.sgIP_sockets_Init
                0x020029a0       0x24 C:/devkitPro/libnds/lib\libdswifi9.a(sgIP_sockets.o)
                0x020029a0                sgIP_sockets_Init
 .text.socket   0x020029c4      0x140 C:/devkitPro/libnds/lib\libdswifi9.a(sgIP_sockets.o)
                0x020029c4                socket
 .text.forceclosesocket
                0x02002b04      0x100 C:/devkitPro/libnds/lib\libdswifi9.a(sgIP_sockets.o)
                0x02002b04                forceclosesocket
 .text.sgIP_sockets_Timer1000ms
                0x02002c04       0xd8 C:/devkitPro/libnds/lib\libdswifi9.a(sgIP_sockets.o)
                0x02002c04                sgIP_sockets_Timer1000ms
 .text.bind     0x02002cdc      0x100 C:/devkitPro/libnds/lib\libdswifi9.a(sgIP_sockets.o)
                0x02002cdc                bind
 .text.connect  0x02002ddc      0x1a8 C:/devkitPro/libnds/lib\libdswifi9.a(sgIP_sockets.o)
                0x02002ddc                connect
 .text.send     0x02002f84      0x190 C:/devkitPro/libnds/lib\libdswifi9.a(sgIP_sockets.o)
                0x02002f84                send
 .text.recv     0x02003114      0x190 C:/devkitPro/libnds/lib\libdswifi9.a(sgIP_sockets.o)
                0x02003114                recv
 .text.sendto   0x020032a4      0x134 C:/devkitPro/libnds/lib\libdswifi9.a(sgIP_sockets.o)
                0x020032a4                sendto
 .text.recvfrom
                0x020033d8      0x1b4 C:/devkitPro/libnds/lib\libdswifi9.a(sgIP_sockets.o)
                0x020033d8                recvfrom
 .text.shutdown
                0x0200358c       0xe8 C:/devkitPro/libnds/lib\libdswifi9.a(sgIP_sockets.o)
                0x0200358c                shutdown
 .text.closesocket
                0x02003674      0x158 C:/devkitPro/libnds/lib\libdswifi9.a(sgIP_sockets.o)
                0x02003674                closesocket
 .text.ioctl    0x020037cc      0x1a0 C:/devkitPro/libnds/lib\libdswifi9.a(sgIP_sockets.o)
                0x020037cc                ioctl
 .text.setsockopt
                0x0200396c        0x8 C:/devkitPro/libnds/lib\libdswifi9.a(sgIP_sockets.o)
                0x0200396c                setsockopt
 .text._wfcRecv
                0x02003974       0xc0 C:/devkitPro/libnds/lib\libdswifi9.a(wfc.o)
 .text._wfcIPThreadMain
                0x02003a34      0x114 C:/devkitPro/libnds/lib\libdswifi9.a(wfc.o)
 .text._wfcSend
                0x02003b48       0x80 C:/devkitPro/libnds/lib\libdswifi9.a(wfc.o)
 .text._wfcIPTimerTask
                0x02003bc8       0x20 C:/devkitPro/libnds/lib\libdswifi9.a(wfc.o)
 .text._wfcOnEvent.part.0
                0x02003be8      0x478 C:/devkitPro/libnds/lib\libdswifi9.a(wfc.o)
 .text._wfcOnEvent
                0x02004060       0x4c C:/devkitPro/libnds/lib\libdswifi9.a(wfc.o)
 .text.sgIP_malloc
                0x020040ac        0xc C:/devkitPro/libnds/lib\libdswifi9.a(wfc.o)
                0x020040ac                sgIP_malloc
 .text.sgIP_free
                0x020040b8        0x4 C:/devkitPro/libnds/lib\libdswifi9.a(wfc.o)
                0x020040b8                sgIP_free
 .text.sgIP_IntrWaitEvent
                0x020040bc       0x10 C:/devkitPro/libnds/lib\libdswifi9.a(wfc.o)
                0x020040bc                sgIP_IntrWaitEvent
 .text.wfcInit  0x020040cc       0x98 C:/devkitPro/libnds/lib\libdswifi9.a(wfc.o)
                0x020040cc                wfcInit
 .text.wfcLoadSlotEx
                0x02004164       0x64 C:/devkitPro/libnds/lib\libdswifi9.a(wfc.o)
                0x02004164                wfcLoadSlotEx
 .text.wfcLoadFromNvram
                0x020041c8      0x194 C:/devkitPro/libnds/lib\libdswifi9.a(wfc.o)
                0x020041c8                wfcLoadFromNvram
 .text.wfcBeginAutoConnect
                0x0200435c       0x60 C:/devkitPro/libnds/lib\libdswifi9.a(wfc.o)
                0x0200435c                wfcBeginAutoConnect
 .text.wfcGetStatus
                0x020043bc       0x54 C:/devkitPro/libnds/lib\libdswifi9.a(wfc.o)
                0x020043bc                wfcGetStatus
 .text.wfcGetIPConfig
                0x02004410       0x78 C:/devkitPro/libnds/lib\libdswifi9.a(wfc.o)
                0x02004410                wfcGetIPConfig
 .text.sgIP_Init
                0x02004488       0x4c C:/devkitPro/libnds/lib\libdswifi9.a(sgIP.o)
                0x02004488                sgIP_Init
 .text.sgIP_Timer
                0x020044d4       0x88 C:/devkitPro/libnds/lib\libdswifi9.a(sgIP.o)
                0x020044d4                sgIP_Timer
 .text.sgIP_memblock_Init
                0x0200455c        0x4 C:/devkitPro/libnds/lib\libdswifi9.a(sgIP_memblock.o)
                0x0200455c                sgIP_memblock_Init
 .text.sgIP_memblock_alloc
                0x02004560       0x34 C:/devkitPro/libnds/lib\libdswifi9.a(sgIP_memblock.o)
                0x02004560                sgIP_memblock_alloc
 .text.sgIP_memblock_free
                0x02004594       0xa0 C:/devkitPro/libnds/lib\libdswifi9.a(sgIP_memblock.o)
                0x02004594                sgIP_memblock_free
 .text.sgIP_memblock_exposeheader
                0x02004634       0x48 C:/devkitPro/libnds/lib\libdswifi9.a(sgIP_memblock.o)
                0x02004634                sgIP_memblock_exposeheader
 .text.sgIP_memblock_trimsize
                0x0200467c       0x5c C:/devkitPro/libnds/lib\libdswifi9.a(sgIP_memblock.o)
                0x0200467c                sgIP_memblock_trimsize
 .text.sgIP_memblock_IPChecksum
                0x020046d8      0x170 C:/devkitPro/libnds/lib\libdswifi9.a(sgIP_memblock.o)
                0x020046d8                sgIP_memblock_IPChecksum
 .text.sgIP_memblock_CopyToLinear
                0x02004848       0xa8 C:/devkitPro/libnds/lib\libdswifi9.a(sgIP_memblock.o)
                0x02004848                sgIP_memblock_CopyToLinear
 .text.sgIP_memblock_CopyFromLinear
                0x020048f0       0xa8 C:/devkitPro/libnds/lib\libdswifi9.a(sgIP_memblock.o)
                0x020048f0                sgIP_memblock_CopyFromLinear
 .text.sgIP_Hub_Init
                0x02004998       0x20 C:/devkitPro/libnds/lib\libdswifi9.a(sgIP_Hub.o)
                0x02004998                sgIP_Hub_Init
 .text.sgIP_Hub_AddProtocolInterface
                0x020049b8       0x6c C:/devkitPro/libnds/lib\libdswifi9.a(sgIP_Hub.o)
                0x020049b8                sgIP_Hub_AddProtocolInterface
 .text.sgIP_Hub_AddHardwareInterface
                0x02004a24       0x68 C:/devkitPro/libnds/lib\libdswifi9.a(sgIP_Hub.o)
                0x02004a24                sgIP_Hub_AddHardwareInterface
 .text.sgIP_Hub_ReceiveHardwarePacket
                0x02004a8c       0x94 C:/devkitPro/libnds/lib\libdswifi9.a(sgIP_Hub.o)
                0x02004a8c                sgIP_Hub_ReceiveHardwarePacket
 .text.sgIP_Hub_SendProtocolPacket
                0x02004b20       0x78 C:/devkitPro/libnds/lib\libdswifi9.a(sgIP_Hub.o)
                0x02004b20                sgIP_Hub_SendProtocolPacket
 .text.sgIP_Hub_SendRawPacket
                0x02004b98       0x3c C:/devkitPro/libnds/lib\libdswifi9.a(sgIP_Hub.o)
                0x02004b98                sgIP_Hub_SendRawPacket
 .text.sgIP_Hub_IPMaxMessageSize
                0x02004bd4        0xc C:/devkitPro/libnds/lib\libdswifi9.a(sgIP_Hub.o)
                0x02004bd4                sgIP_Hub_IPMaxMessageSize
 .text.sgIP_Hub_GetCompatibleIP
                0x02004be0       0x18 C:/devkitPro/libnds/lib\libdswifi9.a(sgIP_Hub.o)
                0x02004be0                sgIP_Hub_GetCompatibleIP
 .text.sgIP_IP_ReceivePacket
                0x02004bf8       0xfc C:/devkitPro/libnds/lib\libdswifi9.a(sgIP_IP.o)
                0x02004bf8                sgIP_IP_ReceivePacket
 .text.sgIP_IP_MaxContentsSize
                0x02004cf4       0x10 C:/devkitPro/libnds/lib\libdswifi9.a(sgIP_IP.o)
                0x02004cf4                sgIP_IP_MaxContentsSize
 .text.sgIP_IP_RequiredHeaderSize
                0x02004d04        0x8 C:/devkitPro/libnds/lib\libdswifi9.a(sgIP_IP.o)
                0x02004d04                sgIP_IP_RequiredHeaderSize
 .text.sgIP_IP_SendViaIP
                0x02004d0c       0xc8 C:/devkitPro/libnds/lib\libdswifi9.a(sgIP_IP.o)
                0x02004d0c                sgIP_IP_SendViaIP
 .text.sgIP_IP_GetLocalBindAddr
                0x02004dd4       0x10 C:/devkitPro/libnds/lib\libdswifi9.a(sgIP_IP.o)
                0x02004dd4                sgIP_IP_GetLocalBindAddr
 .text.sgIP_GetArpSlot
                0x02004de4       0x7c C:/devkitPro/libnds/lib\libdswifi9.a(sgIP_ARP.o)
                0x02004de4                sgIP_GetArpSlot
 .text.sgIP_ARP_Init
                0x02004e60       0x2c C:/devkitPro/libnds/lib\libdswifi9.a(sgIP_ARP.o)
                0x02004e60                sgIP_ARP_Init
 .text.sgIP_ARP_SendARPResponse
                0x02004e8c      0x15c C:/devkitPro/libnds/lib\libdswifi9.a(sgIP_ARP.o)
                0x02004e8c                sgIP_ARP_SendARPResponse
 .text.sgIP_ARP_SendGratARP
                0x02004fe8      0x158 C:/devkitPro/libnds/lib\libdswifi9.a(sgIP_ARP.o)
                0x02004fe8                sgIP_ARP_SendGratARP
 .text.sgIP_ARP_SendARPRequest
                0x02005140      0x14c C:/devkitPro/libnds/lib\libdswifi9.a(sgIP_ARP.o)
                0x02005140                sgIP_ARP_SendARPRequest
 .text.sgIP_ARP_Timer100ms
                0x0200528c       0x98 C:/devkitPro/libnds/lib\libdswifi9.a(sgIP_ARP.o)
                0x0200528c                sgIP_ARP_Timer100ms
 .text.sgIP_ARP_SendProtocolFrame
                0x02005324      0x19c C:/devkitPro/libnds/lib\libdswifi9.a(sgIP_ARP.o)
                0x02005324                sgIP_ARP_SendProtocolFrame
 .text.sgIP_ARP_ProcessARPFrame
                0x020054c0      0x174 C:/devkitPro/libnds/lib\libdswifi9.a(sgIP_ARP.o)
                0x020054c0                sgIP_ARP_ProcessARPFrame
 .text.sgIP_ICMP_ReceivePacket
                0x02005634       0x98 C:/devkitPro/libnds/lib\libdswifi9.a(sgIP_ICMP.o)
                0x02005634                sgIP_ICMP_ReceivePacket
 .text.sgIP_TCP_FixChecksum.part.0
                0x020056cc       0x8c C:/devkitPro/libnds/lib\libdswifi9.a(sgIP_TCP.o)
 .text.sgIP_TCP_Init
                0x02005758       0x4c C:/devkitPro/libnds/lib\libdswifi9.a(sgIP_TCP.o)
                0x02005758                sgIP_TCP_Init
 .text.sgIP_TCP_GetUnusedOutgoingPort
                0x020057a4       0xa8 C:/devkitPro/libnds/lib\libdswifi9.a(sgIP_TCP.o)
                0x020057a4                sgIP_TCP_GetUnusedOutgoingPort
 .text.sgIP_TCP_CalcChecksum
                0x0200584c       0x88 C:/devkitPro/libnds/lib\libdswifi9.a(sgIP_TCP.o)
                0x0200584c                sgIP_TCP_CalcChecksum
 .text.sgIP_TCP_GenHeader
                0x020058d4      0x130 C:/devkitPro/libnds/lib\libdswifi9.a(sgIP_TCP.o)
                0x020058d4                sgIP_TCP_GenHeader
 .text.sgIP_TCP_SendPacket
                0x02005a04      0x158 C:/devkitPro/libnds/lib\libdswifi9.a(sgIP_TCP.o)
                0x02005a04                sgIP_TCP_SendPacket
 .text.sgIP_TCP_SendSynReply
                0x02005b5c      0x148 C:/devkitPro/libnds/lib\libdswifi9.a(sgIP_TCP.o)
                0x02005b5c                sgIP_TCP_SendSynReply
 .text.sgIP_TCP_Timer
                0x02005ca4      0x32c C:/devkitPro/libnds/lib\libdswifi9.a(sgIP_TCP.o)
                0x02005ca4                sgIP_TCP_Timer
 .text.sgIP_TCP_AllocRecord
                0x02005fd0       0xd0 C:/devkitPro/libnds/lib\libdswifi9.a(sgIP_TCP.o)
                0x02005fd0                sgIP_TCP_AllocRecord
 .text.sgIP_TCP_ReceivePacket
                0x020060a0      0x8e0 C:/devkitPro/libnds/lib\libdswifi9.a(sgIP_TCP.o)
                0x020060a0                sgIP_TCP_ReceivePacket
 .text.sgIP_TCP_FreeRecord
                0x02006980      0x194 C:/devkitPro/libnds/lib\libdswifi9.a(sgIP_TCP.o)
                0x02006980                sgIP_TCP_FreeRecord
 .text.sgIP_TCP_Bind
                0x02006b14       0xac C:/devkitPro/libnds/lib\libdswifi9.a(sgIP_TCP.o)
                0x02006b14                sgIP_TCP_Bind
 .text.sgIP_TCP_Close
                0x02006bc0       0xa8 C:/devkitPro/libnds/lib\libdswifi9.a(sgIP_TCP.o)
                0x02006bc0                sgIP_TCP_Close
 .text.sgIP_TCP_Connect
                0x02006c68      0x1bc C:/devkitPro/libnds/lib\libdswifi9.a(sgIP_TCP.o)
                0x02006c68                sgIP_TCP_Connect
 .text.sgIP_TCP_Send
                0x02006e24      0x20c C:/devkitPro/libnds/lib\libdswifi9.a(sgIP_TCP.o)
                0x02006e24                sgIP_TCP_Send
 .text.sgIP_TCP_Recv
                0x02007030      0x1bc C:/devkitPro/libnds/lib\libdswifi9.a(sgIP_TCP.o)
                0x02007030                sgIP_TCP_Recv
 .text.sgIP_UDP_Init
                0x020071ec       0x24 C:/devkitPro/libnds/lib\libdswifi9.a(sgIP_UDP.o)
                0x020071ec                sgIP_UDP_Init
 .text.sgIP_UDP_GetUnusedOutgoingPort
                0x02007210       0x98 C:/devkitPro/libnds/lib\libdswifi9.a(sgIP_UDP.o)
                0x02007210                sgIP_UDP_GetUnusedOutgoingPort
 .text.sgIP_UDP_CalcChecksum
                0x020072a8       0x90 C:/devkitPro/libnds/lib\libdswifi9.a(sgIP_UDP.o)
                0x020072a8                sgIP_UDP_CalcChecksum
 .text.sgIP_UDP_ReceivePacket
                0x02007338      0x160 C:/devkitPro/libnds/lib\libdswifi9.a(sgIP_UDP.o)
                0x02007338                sgIP_UDP_ReceivePacket
 .text.sgIP_UDP_SendPacket
                0x02007498      0x1a8 C:/devkitPro/libnds/lib\libdswifi9.a(sgIP_UDP.o)
                0x02007498                sgIP_UDP_SendPacket
 .text.sgIP_UDP_AllocRecord
                0x02007640       0xac C:/devkitPro/libnds/lib\libdswifi9.a(sgIP_UDP.o)
                0x02007640                sgIP_UDP_AllocRecord
 .text.sgIP_UDP_FreeRecord
                0x020076ec       0xd0 C:/devkitPro/libnds/lib\libdswifi9.a(sgIP_UDP.o)
                0x020076ec                sgIP_UDP_FreeRecord
 .text.sgIP_UDP_Bind
                0x020077bc       0xe8 C:/devkitPro/libnds/lib\libdswifi9.a(sgIP_UDP.o)
                0x020077bc                sgIP_UDP_Bind
 .text.sgIP_UDP_RecvFrom
                0x020078a4      0x1f8 C:/devkitPro/libnds/lib\libdswifi9.a(sgIP_UDP.o)
                0x020078a4                sgIP_UDP_RecvFrom
 .text.sgIP_UDP_SendTo
                0x02007a9c        0xc C:/devkitPro/libnds/lib\libdswifi9.a(sgIP_UDP.o)
                0x02007a9c                sgIP_UDP_SendTo
 .text.newRow   0x02007aa8       0xe0 C:/devkitPro/libnds/lib\libnds9.a(console.o)
 .text.consolePrintChar
                0x02007b88       0xe0 C:/devkitPro/libnds/lib\libnds9.a(console.o)
                0x02007b88                consolePrintChar
 .text.con_write
                0x02007c68      0x344 C:/devkitPro/libnds/lib\libnds9.a(console.o)
                0x02007c68                con_write
 .text.consoleLoadFont
                0x02007fac      0x2e8 C:/devkitPro/libnds/lib\libnds9.a(console.o)
                0x02007fac                consoleLoadFont
 .text.consoleInit
                0x02008294      0x170 C:/devkitPro/libnds/lib\libnds9.a(console.o)
                0x02008294                consoleInit
 .text.consoleDemoInit
                0x02008404       0x40 C:/devkitPro/libnds/lib\libnds9.a(console.o)
                0x02008404                consoleDemoInit
 .text.consoleClear
                0x02008444       0x10 C:/devkitPro/libnds/lib\libnds9.a(console.o)
                0x02008444                consoleClear
 .text.scanKeys
                0x02008454       0x6c C:/devkitPro/libnds/lib\libnds9.a(keys.o)
                0x02008454                scanKeys
 .text.keysDown
                0x020084c0       0x10 C:/devkitPro/libnds/lib\libnds9.a(keys.o)
                0x020084c0                keysDown
 .text.checkIfText
                0x020084d0       0x6c C:/devkitPro/libnds/lib\libnds9.a(background.o)
                0x020084d0                checkIfText
 .text.bgUpdate
                0x0200853c       0xe8 C:/devkitPro/libnds/lib\libnds9.a(background.o)
                0x0200853c                bgUpdate
 .text.bgInit_call
                0x02008624       0xa8 C:/devkitPro/libnds/lib\libnds9.a(background.o)
                0x02008624                bgInit_call
 .text.bgInitSub_call
                0x020086cc       0xb0 C:/devkitPro/libnds/lib\libnds9.a(background.o)
                0x020086cc                bgInitSub_call
 .text.sinLutLookup
                0x0200877c       0x4c C:/devkitPro/libnds/lib\libnds9.a(trig.o)
                0x0200877c                sinLutLookup
 .text.sinLerp  0x020087c8       0x38 C:/devkitPro/libnds/lib\libnds9.a(trig.o)
                0x020087c8                sinLerp
 .text.cosLerp  0x02008800       0x44 C:/devkitPro/libnds/lib\libnds9.a(trig.o)
                0x02008800                cosLerp
 .text.irqSet   0x02008844       0x64 C:/devkitPro/calico/lib\libcalico_ds9.a(irq.o)
                0x02008844                irqSet
 .text._tickCountIsr
                0x020088a8       0x1c C:/devkitPro/calico/lib\libcalico_ds9.a(tick.o)
 .text._tickTaskSchedule.part.0.isra.0
                0x020088c4       0x84 C:/devkitPro/calico/lib\libcalico_ds9.a(tick.o)
 .text.tickInit
                0x02008948       0xa0 C:/devkitPro/calico/lib\libcalico_ds9.a(tick.o)
                0x02008948                tickInit
 .text.tickGetCount
                0x020089e8       0x5c C:/devkitPro/calico/lib\libcalico_ds9.a(tick.o)
                0x020089e8                tickGetCount
 .text._tickTaskIsr
                0x02008a44      0x110 C:/devkitPro/calico/lib\libcalico_ds9.a(tick.o)
 .text.tickTaskStart
                0x02008b54      0x144 C:/devkitPro/calico/lib\libcalico_ds9.a(tick.o)
                0x02008b54                tickTaskStart
 .text.tickTaskStop
                0x02008c98       0xc0 C:/devkitPro/calico/lib\libcalico_ds9.a(tick.o)
                0x02008c98                tickTaskStop
 .text.threadExit
                0x02008d58       0x9c C:/devkitPro/calico/lib\libcalico_ds9.a(thread_cold.o)
                0x02008d58                threadExit
 .text._threadTickTask
                0x02008df4       0x10 C:/devkitPro/calico/lib\libcalico_ds9.a(thread_cold.o)
 .text._threadInit
                0x02008e04       0x98 C:/devkitPro/calico/lib\libcalico_ds9.a(thread_cold.o)
                0x02008e04                _threadInit
 .text.threadPrepare
                0x02008e9c       0xa4 C:/devkitPro/calico/lib\libcalico_ds9.a(thread_cold.o)
                0x02008e9c                threadPrepare
 .text.threadAttachLocalStorage
                0x02008f40      0x120 C:/devkitPro/calico/lib\libcalico_ds9.a(thread_cold.o)
                0x02008f40                threadAttachLocalStorage
 .text.threadStart
                0x02009060       0xc8 C:/devkitPro/calico/lib\libcalico_ds9.a(thread_cold.o)
                0x02009060                threadStart
 .text.threadJoin
                0x02009128       0x58 C:/devkitPro/calico/lib\libcalico_ds9.a(thread_cold.o)
                0x02009128                threadJoin
 .text.threadIrqWait
                0x02009180       0xa0 C:/devkitPro/calico/lib\libcalico_ds9.a(thread_cold.o)
                0x02009180                threadIrqWait
 .text.threadSleepTicks
                0x02009220       0x58 C:/devkitPro/calico/lib\libcalico_ds9.a(thread_cold.o)
                0x02009220                threadSleepTicks
 .text.threadUpdateDynamicPrio
                0x02009278      0x1cc C:/devkitPro/calico/lib\libcalico_ds9.a(mutex.o)
 .text.threadRemoveWaiter
                0x02009444      0x1c8 C:/devkitPro/calico/lib\libcalico_ds9.a(mutex.o)
 .text.mutexLock
                0x0200960c      0x150 C:/devkitPro/calico/lib\libcalico_ds9.a(mutex.o)
                0x0200960c                mutexLock
 .text.mutexUnlock
                0x0200975c       0xd0 C:/devkitPro/calico/lib\libcalico_ds9.a(mutex.o)
                0x0200975c                mutexUnlock
 .text.mailboxTrySend
                0x0200982c       0x98 C:/devkitPro/calico/lib\libcalico_ds9.a(mailbox.o)
                0x0200982c                mailboxTrySend
 .text.mailboxRecv
                0x020098c4       0x98 C:/devkitPro/calico/lib\libcalico_ds9.a(mailbox.o)
                0x020098c4                mailboxRecv
 .text.__syscall_getreent
                0x0200995c       0x14 C:/devkitPro/calico/lib\libcalico_ds9.a(newlib_syscalls.o)
                0x0200995c                __syscall_getreent
 .text.__errno  0x02009970       0x24 C:/devkitPro/calico/lib\libcalico_ds9.a(newlib_syscalls.o)
                0x02009970                __errno
 .text.__syscall_lock_acquire
                0x02009994        0x4 C:/devkitPro/calico/lib\libcalico_ds9.a(newlib_syscalls.o)
                0x02009994                __syscall_lock_acquire
 .text.__syscall_lock_release
                0x02009998        0x4 C:/devkitPro/calico/lib\libcalico_ds9.a(newlib_syscalls.o)
                0x02009998                __syscall_lock_release
 .text.__syscall_lock_acquire_recursive
                0x0200999c       0x4c C:/devkitPro/calico/lib\libcalico_ds9.a(newlib_syscalls.o)
                0x0200999c                __syscall_lock_acquire_recursive
 .text.__syscall_lock_release_recursive
                0x020099e8       0x18 C:/devkitPro/calico/lib\libcalico_ds9.a(newlib_syscalls.o)
                0x020099e8                __syscall_lock_release_recursive
 .text.svcWaitByLoop
                0x02009a00        0x4 C:/devkitPro/calico/lib\libcalico_ds9.a(bios.o)
                0x02009a00                svcWaitByLoop
 .text.svcGetCRC16
                0x02009a04        0x4 C:/devkitPro/calico/lib\libcalico_ds9.a(bios.o)
                0x02009a04                svcGetCRC16
 .text._pxiMailboxHandler
                0x02009a08        0x4 C:/devkitPro/calico/lib\libcalico_ds9.a(pxi.o)
 .text._pxiRecvUnhandled
                0x02009a0c        0x4 C:/devkitPro/calico/lib\libcalico_ds9.a(pxi.o)
                0x02009a0c                _pxiRecvUnhandled
 .text._pxiRecvIrqHandler
                0x02009a10      0x154 C:/devkitPro/calico/lib\libcalico_ds9.a(pxi.o)
 .text._pxiInit
                0x02009b64       0x58 C:/devkitPro/calico/lib\libcalico_ds9.a(pxi.o)
                0x02009b64                _pxiInit
 .text.pxiWaitForPing
                0x02009bbc        0xc C:/devkitPro/calico/lib\libcalico_ds9.a(pxi.o)
                0x02009bbc                pxiWaitForPing
 .text.pxiSetHandler
                0x02009bc8       0x74 C:/devkitPro/calico/lib\libcalico_ds9.a(pxi.o)
                0x02009bc8                pxiSetHandler
 .text.pxiSetMailbox
                0x02009c3c       0x68 C:/devkitPro/calico/lib\libcalico_ds9.a(pxi.o)
                0x02009c3c                pxiSetMailbox
 .text.pxiWaitRemote
                0x02009ca4       0x38 C:/devkitPro/calico/lib\libcalico_ds9.a(pxi.o)
                0x02009ca4                pxiWaitRemote
 .text.pxiSendPacket
                0x02009cdc       0x50 C:/devkitPro/calico/lib\libcalico_ds9.a(pxi.o)
                0x02009cdc                pxiSendPacket
 .text.pxiSendExtPacket
                0x02009d2c       0x98 C:/devkitPro/calico/lib\libcalico_ds9.a(pxi.o)
                0x02009d2c                pxiSendExtPacket
 .text.pxiBeginReceive
                0x02009dc4       0x2c C:/devkitPro/calico/lib\libcalico_ds9.a(pxi.o)
                0x02009dc4                pxiBeginReceive
 .text.pxiEndReceive
                0x02009df0       0xac C:/devkitPro/calico/lib\libcalico_ds9.a(pxi.o)
                0x02009df0                pxiEndReceive
 .text.keypadGetState
                0x02009e9c       0x28 C:/devkitPro/calico/lib\libcalico_ds9.a(keypad.o)
                0x02009e9c                keypadGetState
 .text._netbufPoolInit
                0x02009ec4       0xf8 C:/devkitPro/calico/lib\libcalico_ds9.a(netbuf.o)
 .text._netbufPrvInitPools
                0x02009fbc       0x68 C:/devkitPro/calico/lib\libcalico_ds9.a(netbuf.o)
                0x02009fbc                _netbufPrvInitPools
 .text.netbufAlloc
                0x0200a024       0xd8 C:/devkitPro/calico/lib\libcalico_ds9.a(netbuf.o)
                0x0200a024                netbufAlloc
 .text.netbufFlush
                0x0200a0fc        0xc C:/devkitPro/calico/lib\libcalico_ds9.a(netbuf.o)
                0x0200a0fc                netbufFlush
 .text.netbufFree
                0x0200a108       0xa4 C:/devkitPro/calico/lib\libcalico_ds9.a(netbuf.o)
                0x0200a108                netbufFree
 .text.systemUserStartup
                0x0200a1ac        0x4 C:/devkitPro/calico/lib\libcalico_ds9.a(sys_startup.o)
                0x0200a1ac                systemUserStartup
 .text.systemStartup
                0x0200a1b0      0x104 C:/devkitPro/calico/lib\libcalico_ds9.a(sys_startup.o)
                0x0200a1b0                systemStartup
 .text.pmReadNvram
                0x0200a2b4       0x4c C:/devkitPro/calico/lib\libcalico_ds9.a(pm_arm9.o)
                0x0200a2b4                pmReadNvram
 .text.touchRead
                0x0200a300       0x58 C:/devkitPro/calico/lib\libcalico_ds9.a(touch.o)
                0x0200a300                touchRead
 .text._wlmgrThreadMain
                0x0200a358      0x124 C:/devkitPro/calico/lib\libcalico_ds9.a(wlmgr.o)
 .text._wlmgrRxPxiHandler
                0x0200a47c       0x44 C:/devkitPro/calico/lib\libcalico_ds9.a(wlmgr.o)
 .text.wlmgrInit
                0x0200a4c0      0x178 C:/devkitPro/calico/lib\libcalico_ds9.a(wlmgr.o)
                0x0200a4c0                wlmgrInit
 .text.wlmgrSetEventHandler
                0x0200a638       0x28 C:/devkitPro/calico/lib\libcalico_ds9.a(wlmgr.o)
                0x0200a638                wlmgrSetEventHandler
 .text.wlmgrGetState
                0x0200a660       0x10 C:/devkitPro/calico/lib\libcalico_ds9.a(wlmgr.o)
                0x0200a660                wlmgrGetState
 .text.wlmgrStart
                0x0200a670       0x1c C:/devkitPro/calico/lib\libcalico_ds9.a(wlmgr.o)
                0x0200a670                wlmgrStart
 .text.wlmgrStartScan
                0x0200a68c       0x54 C:/devkitPro/calico/lib\libcalico_ds9.a(wlmgr.o)
                0x0200a68c                wlmgrStartScan
 .text.wlmgrAssociate
                0x0200a6e0       0x68 C:/devkitPro/calico/lib\libcalico_ds9.a(wlmgr.o)
                0x0200a6e0                wlmgrAssociate
 .text.wlmgrDisassociate
                0x0200a748       0x1c C:/devkitPro/calico/lib\libcalico_ds9.a(wlmgr.o)
                0x0200a748                wlmgrDisassociate
 .text.wlmgrSetRawRxHandler
                0x0200a764       0x28 C:/devkitPro/calico/lib\libcalico_ds9.a(wlmgr.o)
                0x0200a764                wlmgrSetRawRxHandler
 .text.wlmgrRawTx
                0x0200a78c       0x30 C:/devkitPro/calico/lib\libcalico_ds9.a(wlmgr.o)
                0x0200a78c                wlmgrRawTx
 .text._pmCallEventHandlers
                0x0200a7bc       0x40 C:/devkitPro/calico/lib\libcalico_ds9.a(pm.o)
 .text._pmPxiThreadMain
                0x0200a7fc       0xa0 C:/devkitPro/calico/lib\libcalico_ds9.a(pm.o)
 .text._pmResetPxiHandler
                0x0200a89c       0x28 C:/devkitPro/calico/lib\libcalico_ds9.a(pm.o)
 .text.systemUserExit
                0x0200a8c4        0x4 C:/devkitPro/calico/lib\libcalico_ds9.a(pm.o)
                0x0200a8c4                systemUserExit
 .text.systemErrorExit
                0x0200a8c8        0x4 C:/devkitPro/calico/lib\libcalico_ds9.a(pm.o)
                0x0200a8c8                systemErrorExit
 .text.__syscall_exit
                0x0200a8cc      0x138 C:/devkitPro/calico/lib\libcalico_ds9.a(pm.o)
                0x0200a8cc                __syscall_exit
 .text.pmInit   0x0200aa04       0x58 C:/devkitPro/calico/lib\libcalico_ds9.a(pm.o)
                0x0200aa04                pmInit
 .text          0x0200aa5c      0x150 C:/devkitPro/devkitARM/bin/../lib/gcc/arm-none-eabi/15.2.0/thumb\libgcc.a(_divsi3.o)
                0x0200aa5c                __divsi3
                0x0200aa5c                __aeabi_idiv
                0x0200ab8c                __aeabi_idivmod
 .text          0x0200abac        0x4 C:/devkitPro/devkitARM/bin/../lib/gcc/arm-none-eabi/15.2.0/thumb\libgcc.a(_dvmd_tls.o)
                0x0200abac                __aeabi_idiv0
                0x0200abac                __aeabi_ldiv0
 .text          0x0200abb0      0x114 C:/devkitPro/devkitARM/bin/../lib/gcc/arm-none-eabi/15.2.0/thumb\libgcc.a(_arm_cmpsf2.o)
                0x0200abb0                __gesf2
                0x0200abb0                __gtsf2
                0x0200abb8                __lesf2
                0x0200abb8                __ltsf2
                0x0200abc0                __nesf2
                0x0200abc0                __eqsf2
                0x0200abc0                __cmpsf2
                0x0200ac24                __aeabi_cfrcmple
                0x0200ac34                __aeabi_cfcmpeq
                0x0200ac34                __aeabi_cfcmple
                0x0200ac4c                __aeabi_fcmpeq
                0x0200ac64                __aeabi_fcmplt
                0x0200ac7c                __aeabi_fcmple
                0x0200ac94                __aeabi_fcmpge
                0x0200acac                __aeabi_fcmpgt
 .text          0x0200acc4       0x3c C:/devkitPro/devkitARM/bin/../lib/gcc/arm-none-eabi/15.2.0/thumb\libgcc.a(_aeabi_uldivmod.o)
                0x0200acc4                __aeabi_uldivmod
 .text.__udivmoddi4
                0x0200ad00      0x194 C:/devkitPro/devkitARM/bin/../lib/gcc/arm-none-eabi/15.2.0/thumb\libgcc.a(_udivmoddi4.o)
                0x0200ad00                __udivmoddi4
 .text          0x0200ae94       0x28 C:/devkitPro/devkitARM/bin/../lib/gcc/arm-none-eabi/15.2.0/thumb\libgcc.a(_clzdi2.o)
                0x0200ae94                __clzdi2
 .text          0x0200aebc       0x48 C:/devkitPro/devkitARM/bin/../lib/gcc/arm-none-eabi/15.2.0/thumb\libgcc.a(_clzsi2.o)
                0x0200aebc                __clzsi2
 .text.strchr   0x0200af04       0xbc C:/devkitPro/devkitARM/bin/../lib/gcc/arm-none-eabi/15.2.0/../../../../arm-none-eabi/lib/thumb\libg.a(libc_a-strchr.o)
                0x0200af04                strchr
 .text.memmove  0x0200afc0       0xcc C:/devkitPro/devkitARM/bin/../lib/gcc/arm-none-eabi/15.2.0/../../../../arm-none-eabi/lib/thumb\libg.a(libc_a-memmove.o)
                0x0200afc0                memmove
 .text.strlen   0x0200b08c       0x60 C:/devkitPro/devkitARM/bin/../lib/gcc/arm-none-eabi/15.2.0/../../../../arm-none-eabi/lib/thumb\libg.a(libc_a-strlen.o)
                0x0200b08c                strlen
 .text.sprintf  0x0200b0ec       0x44 C:/devkitPro/devkitARM/bin/../lib/gcc/arm-none-eabi/15.2.0/../../../../arm-none-eabi/lib/thumb\libg.a(libc_a-sprintf.o)
                0x0200b0ec                sprintf
 .text.__libc_init_array
                0x0200b130       0x54 C:/devkitPro/devkitARM/bin/../lib/gcc/arm-none-eabi/15.2.0/../../../../arm-none-eabi/lib/thumb\libg.a(libc_a-init.o)
                0x0200b130                __libc_init_array
 .text.siscanf  0x0200b184       0x50 C:/devkitPro/devkitARM/bin/../lib/gcc/arm-none-eabi/15.2.0/../../../../arm-none-eabi/lib/thumb\libg.a(libc_a-siscanf.o)
                0x0200b184                siscanf
 .text._malloc_r
                0x0200b1d4      0x550 C:/devkitPro/devkitARM/bin/../lib/gcc/arm-none-eabi/15.2.0/../../../../arm-none-eabi/lib/thumb\libg.a(libc_a-mallocr.o)
                0x0200b1d4                _malloc_r
 .text._malloc_trim_r
                0x0200b724       0xac C:/devkitPro/devkitARM/bin/../lib/gcc/arm-none-eabi/15.2.0/../../../../arm-none-eabi/lib/thumb\libg.a(libc_a-freer.o)
                0x0200b724                _malloc_trim_r
 .text._free_r  0x0200b7d0      0x1d8 C:/devkitPro/devkitARM/bin/../lib/gcc/arm-none-eabi/15.2.0/../../../../arm-none-eabi/lib/thumb\libg.a(libc_a-freer.o)
                0x0200b7d0                _free_r
 .text.strtok   0x0200b9a8       0x20 C:/devkitPro/devkitARM/bin/../lib/gcc/arm-none-eabi/15.2.0/../../../../arm-none-eabi/lib/thumb\libg.a(libc_a-strtok.o)
                0x0200b9a8                strtok
 .text.get_arg  0x0200b9c8      0x404 C:/devkitPro/devkitARM/bin/../lib/gcc/arm-none-eabi/15.2.0/../../../../arm-none-eabi/lib/thumb\libg.a(libc_a-svfprintf.o)
 .text._svfprintf_r
                0x0200bdcc     0x22d8 C:/devkitPro/devkitARM/bin/../lib/gcc/arm-none-eabi/15.2.0/../../../../arm-none-eabi/lib/thumb\libg.a(libc_a-svfprintf.o)
                0x0200bdcc                _svfprintf_r
 .text.strnlen  0x0200e0a4       0x20 C:/devkitPro/devkitARM/bin/../lib/gcc/arm-none-eabi/15.2.0/../../../../arm-none-eabi/lib/thumb\libg.a(libc_a-strnlen.o)
                0x0200e0a4                strnlen
 .text.malloc   0x0200e0c4       0x28 C:/devkitPro/devkitARM/bin/../lib/gcc/arm-none-eabi/15.2.0/../../../../arm-none-eabi/lib/thumb\libg.a(libc_a-malloc.o)
                0x0200e0c4                malloc
 .text.free     0x0200e0ec       0x14 C:/devkitPro/devkitARM/bin/../lib/gcc/arm-none-eabi/15.2.0/../../../../arm-none-eabi/lib/thumb\libg.a(libc_a-malloc.o)
                0x0200e0ec                free
 .text.critical_factorization
                0x0200e100       0xcc C:/devkitPro/devkitARM/bin/../lib/gcc/arm-none-eabi/15.2.0/../../../../arm-none-eabi/lib/thumb\libg.a(libc_a-strstr.o)
 .text.two_way_long_needle
                0x0200e1cc      0x204 C:/devkitPro/devkitARM/bin/../lib/gcc/arm-none-eabi/15.2.0/../../../../arm-none-eabi/lib/thumb\libg.a(libc_a-strstr.o)
 .text.strstr   0x0200e3d0      0x1ac C:/devkitPro/devkitARM/bin/../lib/gcc/arm-none-eabi/15.2.0/../../../../arm-none-eabi/lib/thumb\libg.a(libc_a-strstr.o)
                0x0200e3d0                strstr
 .text.memset   0x0200e57c       0x8c C:/devkitPro/devkitARM/bin/../lib/gcc/arm-none-eabi/15.2.0/../../../../arm-none-eabi/lib/thumb\libg.a(libc_a-memset.o)
                0x0200e57c                memset
 .text.__malloc_lock
                0x0200e608       0x14 C:/devkitPro/devkitARM/bin/../lib/gcc/arm-none-eabi/15.2.0/../../../../arm-none-eabi/lib/thumb\libg.a(libc_a-mlock.o)
                0x0200e608                __malloc_lock
 .text.__malloc_unlock
                0x0200e61c       0x14 C:/devkitPro/devkitARM/bin/../lib/gcc/arm-none-eabi/15.2.0/../../../../arm-none-eabi/lib/thumb\libg.a(libc_a-mlock.o)
                0x0200e61c                __malloc_unlock
 .text.__call_exitprocs
                0x0200e630        0xc C:/devkitPro/devkitARM/bin/../lib/gcc/arm-none-eabi/15.2.0/../../../../arm-none-eabi/lib/thumb\libg.a(libc_a-exit.o)
                0x0200e630                __call_exitprocs
 .text.setvbuf  0x0200e63c      0x1ac C:/devkitPro/devkitARM/bin/../lib/gcc/arm-none-eabi/15.2.0/../../../../arm-none-eabi/lib/thumb\libg.a(libc_a-setvbuf.o)
                0x0200e63c                setvbuf
 .text.__strtok_r
                0x0200e7e8       0x70 C:/devkitPro/devkitARM/bin/../lib/gcc/arm-none-eabi/15.2.0/../../../../arm-none-eabi/lib/thumb\libg.a(libc_a-strtok_r.o)
                0x0200e7e8                __strtok_r
 .text.close    0x0200e858       0x14 C:/devkitPro/devkitARM/bin/../lib/gcc/arm-none-eabi/15.2.0/../../../../arm-none-eabi/lib/thumb\libg.a(libc_a-sysclose.o)
                0x0200e858                close
 .text.strncpy  0x0200e86c       0x68 C:/devkitPro/devkitARM/bin/../lib/gcc/arm-none-eabi/15.2.0/../../../../arm-none-eabi/lib/thumb\libg.a(libc_a-strncpy.o)
                0x0200e86c                strncpy
 .text.memcpy   0x0200e8d4       0xb0 C:/devkitPro/devkitARM/bin/../lib/gcc/arm-none-eabi/15.2.0/../../../../arm-none-eabi/lib/thumb\libg.a(libc_a-memcpy-stub.o)
                0x0200e8d4                memcpy
 .text._wcsrtombs_r
                0x0200e984       0x20 C:/devkitPro/devkitARM/bin/../lib/gcc/arm-none-eabi/15.2.0/../../../../arm-none-eabi/lib/thumb\libg.a(libc_a-wcsrtombs.o)
                0x0200e984                _wcsrtombs_r
 .text.sscanf   0x0200e9a4       0x50 C:/devkitPro/devkitARM/bin/../lib/gcc/arm-none-eabi/15.2.0/../../../../arm-none-eabi/lib/thumb\libg.a(libc_a-sscanf.o)
                0x0200e9a4                sscanf
 .text.iprintf  0x0200e9f4       0x28 C:/devkitPro/devkitARM/bin/../lib/gcc/arm-none-eabi/15.2.0/../../../../arm-none-eabi/lib/thumb\libg.a(libc_a-iprintf.o)
                0x0200e9f4                iprintf
 .text.frexp    0x0200ea1c       0x74 C:/devkitPro/devkitARM/bin/../lib/gcc/arm-none-eabi/15.2.0/../../../../arm-none-eabi/lib/thumb\libg.a(libm_a-s_frexp.o)
                0x0200ea1c                frexp
 .text.__sread  0x0200ea90       0x34 C:/devkitPro/devkitARM/bin/../lib/gcc/arm-none-eabi/15.2.0/../../../../arm-none-eabi/lib/thumb\libg.a(libc_a-stdio.o)
                0x0200ea90                __sread
 .text.__seofread
                0x0200eac4        0x4 C:/devkitPro/devkitARM/bin/../lib/gcc/arm-none-eabi/15.2.0/../../../../arm-none-eabi/lib/thumb\libg.a(libc_a-stdio.o)
                0x0200eac4                __seofread
 .text.__swrite
                0x0200eac8       0x4c C:/devkitPro/devkitARM/bin/../lib/gcc/arm-none-eabi/15.2.0/../../../../arm-none-eabi/lib/thumb\libg.a(libc_a-stdio.o)
                0x0200eac8                __swrite
 .text.__sseek  0x0200eb14       0x3c C:/devkitPro/devkitARM/bin/../lib/gcc/arm-none-eabi/15.2.0/../../../../arm-none-eabi/lib/thumb\libg.a(libc_a-stdio.o)
                0x0200eb14                __sseek
 .text.__sclose
                0x0200eb50       0x10 C:/devkitPro/devkitARM/bin/../lib/gcc/arm-none-eabi/15.2.0/../../../../arm-none-eabi/lib/thumb\libg.a(libc_a-stdio.o)
                0x0200eb50                __sclose
 .text.__locale_mb_cur_max
                0x0200eb60       0x20 C:/devkitPro/devkitARM/bin/../lib/gcc/arm-none-eabi/15.2.0/../../../../arm-none-eabi/lib/thumb\libg.a(libc_a-locale.o)
                0x0200eb60                __locale_mb_cur_max
 .text.__ssprint_r
                0x0200eb80       0x60 C:/devkitPro/devkitARM/bin/../lib/gcc/arm-none-eabi/15.2.0/../../../../arm-none-eabi/lib/thumb\libg.a(libc_a-ssprint_r.o)
                0x0200eb80                __ssprint_r
 .text.get_arg  0x0200ebe0      0x404 C:/devkitPro/devkitARM/bin/../lib/gcc/arm-none-eabi/15.2.0/../../../../arm-none-eabi/lib/thumb\libg.a(libc_a-vfiprintf.o)
 .text._vfiprintf_r
                0x0200efe4     0x16d0 C:/devkitPro/devkitARM/bin/../lib/gcc/arm-none-eabi/15.2.0/../../../../arm-none-eabi/lib/thumb\libg.a(libc_a-vfiprintf.o)
                0x0200efe4                _vfiprintf_r
 .text.__sbprintf
                0x020106b4       0x7c C:/devkitPro/devkitARM/bin/../lib/gcc/arm-none-eabi/15.2.0/../../../../arm-none-eabi/lib/thumb\libg.a(libc_a-vfiprintf.o)
 .text._memalign_r
                0x02010730      0x118 C:/devkitPro/devkitARM/bin/../lib/gcc/arm-none-eabi/15.2.0/../../../../arm-none-eabi/lib/thumb\libg.a(libc_a-malignr.o)
                0x02010730                _memalign_r
 .text._wcsnrtombs_l
                0x02010848      0x11c C:/devkitPro/devkitARM/bin/../lib/gcc/arm-none-eabi/15.2.0/../../../../arm-none-eabi/lib/thumb\libg.a(libc_a-wcsnrtombs.o)
                0x02010848                _wcsnrtombs_l
 .text._wcsnrtombs_r
                0x02010964       0x40 C:/devkitPro/devkitARM/bin/../lib/gcc/arm-none-eabi/15.2.0/../../../../arm-none-eabi/lib/thumb\libg.a(libc_a-wcsnrtombs.o)
                0x02010964                _wcsnrtombs_r
 .text.get_arg  0x020109a4       0x3e C:/devkitPro/devkitARM/bin/../lib/gcc/arm-none-eabi/15.2.0/../../../../arm-none-eabi/lib/thumb\libg.a(libc_a-svfiscanf.o)
 .text._sungetc_r
                0x020109e2       0x7e C:/devkitPro/devkitARM/bin/../lib/gcc/arm-none-eabi/15.2.0/../../../../arm-none-eabi/lib/thumb\libg.a(libc_a-svfiscanf.o)
                0x020109e2                _sungetc_r
 .text.__ssrefill_r
                0x02010a60       0x42 C:/devkitPro/devkitARM/bin/../lib/gcc/arm-none-eabi/15.2.0/../../../../arm-none-eabi/lib/thumb\libg.a(libc_a-svfiscanf.o)
                0x02010a60                __ssrefill_r
 .text._sfread_r
                0x02010aa2       0x88 C:/devkitPro/devkitARM/bin/../lib/gcc/arm-none-eabi/15.2.0/../../../../arm-none-eabi/lib/thumb\libg.a(libc_a-svfiscanf.o)
                0x02010aa2                _sfread_r
 *fill*         0x02010b2a        0x2 ff
 .text.__ssvfiscanf_r
                0x02010b2c     0x1984 C:/devkitPro/devkitARM/bin/../lib/gcc/arm-none-eabi/15.2.0/../../../../arm-none-eabi/lib/thumb\libg.a(libc_a-svfiscanf.o)
                0x02010b2c                __ssvfiscanf_r
 .text.memcmp   0x020124b0       0x48 C:/devkitPro/devkitARM/bin/../lib/gcc/arm-none-eabi/15.2.0/../../../../arm-none-eabi/lib/thumb\libg.a(libc_a-memcmp.o)
                0x020124b0                memcmp
 .text.stdio_exit_handler
                0x020124f8       0x20 C:/devkitPro/devkitARM/bin/../lib/gcc/arm-none-eabi/15.2.0/../../../../arm-none-eabi/lib/thumb\libg.a(libc_a-findfp.o)
 .text.cleanup_stdio
                0x02012518       0x40 C:/devkitPro/devkitARM/bin/../lib/gcc/arm-none-eabi/15.2.0/../../../../arm-none-eabi/lib/thumb\libg.a(libc_a-findfp.o)
 .text.global_stdio_init.part.0
                0x02012558      0x120 C:/devkitPro/devkitARM/bin/../lib/gcc/arm-none-eabi/15.2.0/../../../../arm-none-eabi/lib/thumb\libg.a(libc_a-findfp.o)
 .text.__sinit  0x02012678       0x3c C:/devkitPro/devkitARM/bin/../lib/gcc/arm-none-eabi/15.2.0/../../../../arm-none-eabi/lib/thumb\libg.a(libc_a-findfp.o)
                0x02012678                __sinit
 .text.__sfp_lock_acquire
                0x020126b4       0x14 C:/devkitPro/devkitARM/bin/../lib/gcc/arm-none-eabi/15.2.0/../../../../arm-none-eabi/lib/thumb\libg.a(libc_a-findfp.o)
                0x020126b4                __sfp_lock_acquire
 .text.__sfp_lock_release
                0x020126c8       0x14 C:/devkitPro/devkitARM/bin/../lib/gcc/arm-none-eabi/15.2.0/../../../../arm-none-eabi/lib/thumb\libg.a(libc_a-findfp.o)
                0x020126c8                __sfp_lock_release
 .text._strtoul_l.isra.0
                0x020126dc      0x150 C:/devkitPro/devkitARM/bin/../lib/gcc/arm-none-eabi/15.2.0/../../../../arm-none-eabi/lib/thumb\libg.a(libc_a-strtoul.o)
 .text._strtoul_r
                0x0201282c       0x20 C:/devkitPro/devkitARM/bin/../lib/gcc/arm-none-eabi/15.2.0/../../../../arm-none-eabi/lib/thumb\libg.a(libc_a-strtoul.o)
                0x0201282c                _strtoul_r
 .text.__utf8_mbtowc
                0x0201284c      0x24c C:/devkitPro/devkitARM/bin/../lib/gcc/arm-none-eabi/15.2.0/../../../../arm-none-eabi/lib/thumb\libg.a(libc_a-mbtowc_r.o)
                0x0201284c                __utf8_mbtowc
 .text._fwalk_sglue
                0x02012a98       0x4c C:/devkitPro/devkitARM/bin/../lib/gcc/arm-none-eabi/15.2.0/../../../../arm-none-eabi/lib/thumb\libg.a(libc_a-fwalk.o)
                0x02012a98                _fwalk_sglue
 .text.__sprint_r
                0x02012ae4       0x24 C:/devkitPro/devkitARM/bin/../lib/gcc/arm-none-eabi/15.2.0/../../../../arm-none-eabi/lib/thumb\libg.a(libc_a-sprint_r.o)
                0x02012ae4                __sprint_r
 .text.iswspace
                0x02012b08       0x10 C:/devkitPro/devkitARM/bin/../lib/gcc/arm-none-eabi/15.2.0/../../../../arm-none-eabi/lib/thumb\libg.a(libc_a-iswspace.o)
                0x02012b08                iswspace
 .text._localeconv_r
                0x02012b18       0x1c C:/devkitPro/devkitARM/bin/../lib/gcc/arm-none-eabi/15.2.0/../../../../arm-none-eabi/lib/thumb\libg.a(libc_a-localeconv.o)
                0x02012b18                _localeconv_r
 .text.realloc  0x02012b34       0x18 C:/devkitPro/devkitARM/bin/../lib/gcc/arm-none-eabi/15.2.0/../../../../arm-none-eabi/lib/thumb\libg.a(libc_a-realloc.o)
                0x02012b34                realloc
 .text.memchr   0x02012b4c       0x74 C:/devkitPro/devkitARM/bin/../lib/gcc/arm-none-eabi/15.2.0/../../../../arm-none-eabi/lib/thumb\libg.a(libc_a-memchr-stub.o)
                0x02012b4c                memchr
 .text.quorem   0x02012bc0      0x160 C:/devkitPro/devkitARM/bin/../lib/gcc/arm-none-eabi/15.2.0/../../../../arm-none-eabi/lib/thumb\libg.a(libc_a-dtoa.o)
 .text._dtoa_r  0x02012d20     0x10a0 C:/devkitPro/devkitARM/bin/../lib/gcc/arm-none-eabi/15.2.0/../../../../arm-none-eabi/lib/thumb\libg.a(libc_a-dtoa.o)
                0x02012d20                _dtoa_r
 .text._wcrtomb_r
                0x02013dc0       0x84 C:/devkitPro/devkitARM/bin/../lib/gcc/arm-none-eabi/15.2.0/../../../../arm-none-eabi/lib/thumb\libg.a(libc_a-wcrtomb.o)
                0x02013dc0                _wcrtomb_r
 .text._strtol_l.part.0
                0x02013e44      0x25c C:/devkitPro/devkitARM/bin/../lib/gcc/arm-none-eabi/15.2.0/../../../../arm-none-eabi/lib/thumb\libg.a(libc_a-strtol.o)
 .text._strtol_r
                0x020140a0       0x34 C:/devkitPro/devkitARM/bin/../lib/gcc/arm-none-eabi/15.2.0/../../../../arm-none-eabi/lib/thumb\libg.a(libc_a-strtol.o)
                0x020140a0                _strtol_r
 .text.__libc_fini_array
                0x020140d4       0x30 C:/devkitPro/devkitARM/bin/../lib/gcc/arm-none-eabi/15.2.0/../../../../arm-none-eabi/lib/thumb\libg.a(libc_a-fini.o)
                0x020140d4                __libc_fini_array
 .text.__sccl   0x02014104       0xb0 C:/devkitPro/devkitARM/bin/../lib/gcc/arm-none-eabi/15.2.0/../../../../arm-none-eabi/lib/thumb\libg.a(libc_a-sccl.o)
                0x02014104                __sccl
 .text.__sflush_r
                0x020141b4      0x180 C:/devkitPro/devkitARM/bin/../lib/gcc/arm-none-eabi/15.2.0/../../../../arm-none-eabi/lib/thumb\libg.a(libc_a-fflush.o)
                0x020141b4                __sflush_r
 .text._fflush_r
                0x02014334       0x70 C:/devkitPro/devkitARM/bin/../lib/gcc/arm-none-eabi/15.2.0/../../../../arm-none-eabi/lib/thumb\libg.a(libc_a-fflush.o)
                0x02014334                _fflush_r
 .text.__smakebuf_r
                0x020143a4       0xe0 C:/devkitPro/devkitARM/bin/../lib/gcc/arm-none-eabi/15.2.0/../../../../arm-none-eabi/lib/thumb\libg.a(libc_a-makebuf.o)
                0x020143a4                __smakebuf_r
 .text.__swhatbuf_r
                0x02014484       0x5c C:/devkitPro/devkitARM/bin/../lib/gcc/arm-none-eabi/15.2.0/../../../../arm-none-eabi/lib/thumb\libg.a(libc_a-makebuf.o)
                0x02014484                __swhatbuf_r
 .text._realloc_r
                0x020144e0      0x344 C:/devkitPro/devkitARM/bin/../lib/gcc/arm-none-eabi/15.2.0/../../../../arm-none-eabi/lib/thumb\libg.a(libc_a-reallocr.o)
                0x020144e0                _realloc_r
 .text.__ssputs_r
                0x02014824       0xd4 C:/devkitPro/devkitARM/bin/../lib/gcc/arm-none-eabi/15.2.0/../../../../arm-none-eabi/lib/thumb\libg.a(libc_a-ssputs_r.o)
                0x02014824                __ssputs_r
 .text.get_arg  0x020148f8       0x3e C:/devkitPro/devkitARM/bin/../lib/gcc/arm-none-eabi/15.2.0/../../../../arm-none-eabi/lib/thumb\libg.a(libc_a-svfscanf.o)
 *fill*         0x02014936        0x2 ff
 .text.__ssvfscanf_r
                0x02014938     0x1fc8 C:/devkitPro/devkitARM/bin/../lib/gcc/arm-none-eabi/15.2.0/../../../../arm-none-eabi/lib/thumb\libg.a(libc_a-svfscanf.o)
                0x02014938                __ssvfscanf_r
 .text.__utf8_wctomb
                0x02016900       0xbc C:/devkitPro/devkitARM/bin/../lib/gcc/arm-none-eabi/15.2.0/../../../../arm-none-eabi/lib/thumb\libg.a(libc_a-wctomb_r.o)
                0x02016900                __utf8_wctomb
 .text._strtoull_l.isra.0
                0x020169bc      0x1c0 C:/devkitPro/devkitARM/bin/../lib/gcc/arm-none-eabi/15.2.0/../../../../arm-none-eabi/lib/thumb\libg.a(libc_a-strtoull.o)
 .text._strtoull_r
                0x02016b7c       0x20 C:/devkitPro/devkitARM/bin/../lib/gcc/arm-none-eabi/15.2.0/../../../../arm-none-eabi/lib/thumb\libg.a(libc_a-strtoull.o)
                0x02016b7c                _strtoull_r
 .text._mbrtowc_r
                0x02016b9c       0x98 C:/devkitPro/devkitARM/bin/../lib/gcc/arm-none-eabi/15.2.0/../../../../arm-none-eabi/lib/thumb\libg.a(libc_a-mbrtowc.o)
                0x02016b9c                _mbrtowc_r
 .text.__swsetup_r
                0x02016c34       0xd4 C:/devkitPro/devkitARM/bin/../lib/gcc/arm-none-eabi/15.2.0/../../../../arm-none-eabi/lib/thumb\libg.a(libc_a-wsetup.o)
                0x02016c34                __swsetup_r
 .text.nanf     0x02016d08        0x8 C:/devkitPro/devkitARM/bin/../lib/gcc/arm-none-eabi/15.2.0/../../../../arm-none-eabi/lib/thumb\libg.a(libm_a-sf_nan.o)
                0x02016d08                nanf
 .text.strncmp  0x02016d10       0x70 C:/devkitPro/devkitARM/bin/../lib/gcc/arm-none-eabi/15.2.0/../../../../arm-none-eabi/lib/thumb\libg.a(libc_a-strncmp.o)
                0x02016d10                strncmp
 .text.__sfvwrite_r
                0x02016d80      0x31c C:/devkitPro/devkitARM/bin/../lib/gcc/arm-none-eabi/15.2.0/../../../../arm-none-eabi/lib/thumb\libg.a(libc_a-fvwrite.o)
                0x02016d80                __sfvwrite_r
 .text.__assert_func
                0x0201709c       0x40 C:/devkitPro/devkitARM/bin/../lib/gcc/arm-none-eabi/15.2.0/../../../../arm-none-eabi/lib/thumb\libg.a(libc_a-assert.o)
                0x0201709c                __assert_func
 .text.iswspace_l
                0x020170dc       0x28 C:/devkitPro/devkitARM/bin/../lib/gcc/arm-none-eabi/15.2.0/../../../../arm-none-eabi/lib/thumb\libg.a(libc_a-iswspace_l.o)
                0x020170dc                iswspace_l
 .text._Balloc  0x02017104       0x5c C:/devkitPro/devkitARM/bin/../lib/gcc/arm-none-eabi/15.2.0/../../../../arm-none-eabi/lib/thumb\libg.a(libc_a-mprec.o)
                0x02017104                _Balloc
 .text._Bfree   0x02017160       0x14 C:/devkitPro/devkitARM/bin/../lib/gcc/arm-none-eabi/15.2.0/../../../../arm-none-eabi/lib/thumb\libg.a(libc_a-mprec.o)
                0x02017160                _Bfree
 .text.__multadd
                0x02017174       0xa8 C:/devkitPro/devkitARM/bin/../lib/gcc/arm-none-eabi/15.2.0/../../../../arm-none-eabi/lib/thumb\libg.a(libc_a-mprec.o)
                0x02017174                __multadd
 .text.__s2b    0x0201721c       0xb4 C:/devkitPro/devkitARM/bin/../lib/gcc/arm-none-eabi/15.2.0/../../../../arm-none-eabi/lib/thumb\libg.a(libc_a-mprec.o)
                0x0201721c                __s2b
 .text.__hi0bits
                0x020172d0       0x60 C:/devkitPro/devkitARM/bin/../lib/gcc/arm-none-eabi/15.2.0/../../../../arm-none-eabi/lib/thumb\libg.a(libc_a-mprec.o)
                0x020172d0                __hi0bits
 .text.__lo0bits
                0x02017330       0x8c C:/devkitPro/devkitARM/bin/../lib/gcc/arm-none-eabi/15.2.0/../../../../arm-none-eabi/lib/thumb\libg.a(libc_a-mprec.o)
                0x02017330                __lo0bits
 .text.__i2b    0x020173bc       0x64 C:/devkitPro/devkitARM/bin/../lib/gcc/arm-none-eabi/15.2.0/../../../../arm-none-eabi/lib/thumb\libg.a(libc_a-mprec.o)
                0x020173bc                __i2b
 .text.__multiply
                0x02017420      0x1b4 C:/devkitPro/devkitARM/bin/../lib/gcc/arm-none-eabi/15.2.0/../../../../arm-none-eabi/lib/thumb\libg.a(libc_a-mprec.o)
                0x02017420                __multiply
 .text.__pow5mult
                0x020175d4       0xd8 C:/devkitPro/devkitARM/bin/../lib/gcc/arm-none-eabi/15.2.0/../../../../arm-none-eabi/lib/thumb\libg.a(libc_a-mprec.o)
                0x020175d4                __pow5mult
 .text.__lshift
                0x020176ac       0xf8 C:/devkitPro/devkitARM/bin/../lib/gcc/arm-none-eabi/15.2.0/../../../../arm-none-eabi/lib/thumb\libg.a(libc_a-mprec.o)
                0x020176ac                __lshift
 .text.__mcmp   0x020177a4       0x50 C:/devkitPro/devkitARM/bin/../lib/gcc/arm-none-eabi/15.2.0/../../../../arm-none-eabi/lib/thumb\libg.a(libc_a-mprec.o)
                0x020177a4                __mcmp
 .text.__mdiff  0x020177f4      0x1a4 C:/devkitPro/devkitARM/bin/../lib/gcc/arm-none-eabi/15.2.0/../../../../arm-none-eabi/lib/thumb\libg.a(libc_a-mprec.o)
                0x020177f4                __mdiff
 .text.__ulp    0x02017998       0x40 C:/devkitPro/devkitARM/bin/../lib/gcc/arm-none-eabi/15.2.0/../../../../arm-none-eabi/lib/thumb\libg.a(libc_a-mprec.o)
                0x02017998                __ulp
 .text.__b2d    0x020179d8       0xc8 C:/devkitPro/devkitARM/bin/../lib/gcc/arm-none-eabi/15.2.0/../../../../arm-none-eabi/lib/thumb\libg.a(libc_a-mprec.o)
                0x020179d8                __b2d
 .text.__d2b    0x02017aa0       0xd4 C:/devkitPro/devkitARM/bin/../lib/gcc/arm-none-eabi/15.2.0/../../../../arm-none-eabi/lib/thumb\libg.a(libc_a-mprec.o)
                0x02017aa0                __d2b
 .text.__ratio  0x02017b74       0x60 C:/devkitPro/devkitARM/bin/../lib/gcc/arm-none-eabi/15.2.0/../../../../arm-none-eabi/lib/thumb\libg.a(libc_a-mprec.o)
                0x02017b74                __ratio
 .text.__copybits
                0x02017bd4       0x48 C:/devkitPro/devkitARM/bin/../lib/gcc/arm-none-eabi/15.2.0/../../../../arm-none-eabi/lib/thumb\libg.a(libc_a-mprec.o)
                0x02017bd4                __copybits
 .text.__any_on
                0x02017c1c       0x54 C:/devkitPro/devkitARM/bin/../lib/gcc/arm-none-eabi/15.2.0/../../../../arm-none-eabi/lib/thumb\libg.a(libc_a-mprec.o)
                0x02017c1c                __any_on
 .text._fclose_r
                0x02017c70       0xdc C:/devkitPro/devkitARM/bin/../lib/gcc/arm-none-eabi/15.2.0/../../../../arm-none-eabi/lib/thumb\libg.a(libc_a-fclose.o)
                0x02017c70                _fclose_r
 .text._strtoll_l.isra.0
                0x02017d4c      0x300 C:/devkitPro/devkitARM/bin/../lib/gcc/arm-none-eabi/15.2.0/../../../../arm-none-eabi/lib/thumb\libg.a(libc_a-strtoll.o)
 .text._strtoll_r
                0x0201804c       0x20 C:/devkitPro/devkitARM/bin/../lib/gcc/arm-none-eabi/15.2.0/../../../../arm-none-eabi/lib/thumb\libg.a(libc_a-strtoll.o)
                0x0201804c                _strtoll_r
 .text.__submore
                0x0201806c       0x7c C:/devkitPro/devkitARM/bin/../lib/gcc/arm-none-eabi/15.2.0/../../../../arm-none-eabi/lib/thumb\libg.a(libc_a-ungetc.o)
                0x0201806c                __submore
 .text.sulp     0x020180e8       0x34 C:/devkitPro/devkitARM/bin/../lib/gcc/arm-none-eabi/15.2.0/../../../../arm-none-eabi/lib/thumb\libg.a(libc_a-strtod.o)
 .text._strtod_l
                0x0201811c      0xf7c C:/devkitPro/devkitARM/bin/../lib/gcc/arm-none-eabi/15.2.0/../../../../arm-none-eabi/lib/thumb\libg.a(libc_a-strtod.o)
                0x0201811c                _strtod_l
 .text._strtod_r
                0x02019098       0x2c C:/devkitPro/devkitARM/bin/../lib/gcc/arm-none-eabi/15.2.0/../../../../arm-none-eabi/lib/thumb\libg.a(libc_a-strtod.o)
                0x02019098                _strtod_r
 .text.fiprintf
                0x020190c4       0x28 C:/devkitPro/devkitARM/bin/../lib/gcc/arm-none-eabi/15.2.0/../../../../arm-none-eabi/lib/thumb\libg.a(libc_a-fiprintf.o)
                0x020190c4                fiprintf
 .text.rshift   0x020190ec       0xac C:/devkitPro/devkitARM/bin/../lib/gcc/arm-none-eabi/15.2.0/../../../../arm-none-eabi/lib/thumb\libg.a(libc_a-gdtoa-gethex.o)
 .text.__gethex
                0x02019198      0x60c C:/devkitPro/devkitARM/bin/../lib/gcc/arm-none-eabi/15.2.0/../../../../arm-none-eabi/lib/thumb\libg.a(libc_a-gdtoa-gethex.o)
                0x02019198                __gethex
 .text.abort    0x020197a4       0x10 C:/devkitPro/devkitARM/bin/../lib/gcc/arm-none-eabi/15.2.0/../../../../arm-none-eabi/lib/thumb\libg.a(libc_a-abort.o)
                0x020197a4                abort
 .text._calloc_r
                0x020197b4       0xcc C:/devkitPro/devkitARM/bin/../lib/gcc/arm-none-eabi/15.2.0/../../../../arm-none-eabi/lib/thumb\libg.a(libc_a-callocr.o)
                0x020197b4                _calloc_r
 .text.category
                0x02019880       0x5c C:/devkitPro/devkitARM/bin/../lib/gcc/arm-none-eabi/15.2.0/../../../../arm-none-eabi/lib/thumb\libg.a(libc_a-categories.o)
                0x02019880                category
 .text.stpncpy  0x020198dc       0x74 C:/devkitPro/devkitARM/bin/../lib/gcc/arm-none-eabi/15.2.0/../../../../arm-none-eabi/lib/thumb\libg.a(libc_a-stpncpy.o)
                0x020198dc                stpncpy
 .text.__match  0x02019950       0x38 C:/devkitPro/devkitARM/bin/../lib/gcc/arm-none-eabi/15.2.0/../../../../arm-none-eabi/lib/thumb\libg.a(libc_a-gdtoa-hexnan.o)
                0x02019950                __match
 .text.__hexnan
                0x02019988      0x1e8 C:/devkitPro/devkitARM/bin/../lib/gcc/arm-none-eabi/15.2.0/../../../../arm-none-eabi/lib/thumb\libg.a(libc_a-gdtoa-hexnan.o)
                0x02019988                __hexnan
 .text.nan      0x02019b70        0xc C:/devkitPro/devkitARM/bin/../lib/gcc/arm-none-eabi/15.2.0/../../../../arm-none-eabi/lib/thumb\libg.a(libm_a-s_nan.o)
                0x02019b70                nan
 .text._raise_r
                0x02019b7c       0x60 C:/devkitPro/devkitARM/bin/../lib/gcc/arm-none-eabi/15.2.0/../../../../arm-none-eabi/lib/thumb\libg.a(libc_a-signal.o)
                0x02019b7c                _raise_r
 .text.raise    0x02019bdc       0x14 C:/devkitPro/devkitARM/bin/../lib/gcc/arm-none-eabi/15.2.0/../../../../arm-none-eabi/lib/thumb\libg.a(libc_a-signal.o)
                0x02019bdc                raise
 .text._exit    0x02019bf0       0x14 C:/devkitPro/devkitARM/bin/../lib/gcc/arm-none-eabi/15.2.0/../../../../arm-none-eabi/lib/thumb\libsysbase.a(libsysbase_libsysbase_a-_exit.o)
                0x02019bf0                _exit
 .text._fstat_r
                0x02019c04       0x5c C:/devkitPro/devkitARM/bin/../lib/gcc/arm-none-eabi/15.2.0/../../../../arm-none-eabi/lib/thumb\libsysbase.a(libsysbase_libsysbase_a-fstat.o)
                0x02019c04                _fstat_r
 .text._getpid_r
                0x02019c60        0xc C:/devkitPro/devkitARM/bin/../lib/gcc/arm-none-eabi/15.2.0/../../../../arm-none-eabi/lib/thumb\libsysbase.a(libsysbase_libsysbase_a-getpid.o)
                0x02019c60                _getpid_r
 .text.__getreent
                0x02019c6c       0x20 C:/devkitPro/devkitARM/bin/../lib/gcc/arm-none-eabi/15.2.0/../../../../arm-none-eabi/lib/thumb\libsysbase.a(libsysbase_libsysbase_a-getreent.o)
                0x02019c6c                __getreent
 .text.__get_handle
                0x02019c8c       0x34 C:/devkitPro/devkitARM/bin/../lib/gcc/arm-none-eabi/15.2.0/../../../../arm-none-eabi/lib/thumb\libsysbase.a(libsysbase_libsysbase_a-handle_manager.o)
                0x02019c8c                __get_handle
 .text._close_r
                0x02019cc0       0xb0 C:/devkitPro/devkitARM/bin/../lib/gcc/arm-none-eabi/15.2.0/../../../../arm-none-eabi/lib/thumb\libsysbase.a(libsysbase_libsysbase_a-handle_manager.o)
                0x02019cc0                _close_r
 .text.null_write
                0x02019d70        0x4 C:/devkitPro/devkitARM/bin/../lib/gcc/arm-none-eabi/15.2.0/../../../../arm-none-eabi/lib/thumb\libsysbase.a(libsysbase_libsysbase_a-iosupport.o)
 .text._isatty_r
                0x02019d74        0x4 C:/devkitPro/devkitARM/bin/../lib/gcc/arm-none-eabi/15.2.0/../../../../arm-none-eabi/lib/thumb\libsysbase.a(libsysbase_libsysbase_a-isatty.o)
                0x02019d74                _isatty_r
 .text._kill_r  0x02019d78        0xc C:/devkitPro/devkitARM/bin/../lib/gcc/arm-none-eabi/15.2.0/../../../../arm-none-eabi/lib/thumb\libsysbase.a(libsysbase_libsysbase_a-kill.o)
                0x02019d78                _kill_r
 .text._lseek_r
                0x02019d84       0x64 C:/devkitPro/devkitARM/bin/../lib/gcc/arm-none-eabi/15.2.0/../../../../arm-none-eabi/lib/thumb\libsysbase.a(libsysbase_libsysbase_a-lseek.o)
                0x02019d84                _lseek_r
 .text._read_r  0x02019de8       0x5c C:/devkitPro/devkitARM/bin/../lib/gcc/arm-none-eabi/15.2.0/../../../../arm-none-eabi/lib/thumb\libsysbase.a(libsysbase_libsysbase_a-read.o)
                0x02019de8                _read_r
 .text._sbrk_r  0x02019e44       0x50 C:/devkitPro/devkitARM/bin/../lib/gcc/arm-none-eabi/15.2.0/../../../../arm-none-eabi/lib/thumb\libsysbase.a(libsysbase_libsysbase_a-sbrk.o)
                0x02019e44                _sbrk_r
 .text.__libc_lock_acquire
                0x02019e94       0x18 C:/devkitPro/devkitARM/bin/../lib/gcc/arm-none-eabi/15.2.0/../../../../arm-none-eabi/lib/thumb\libsysbase.a(libsysbase_libsysbase_a-syscall_support.o)
                0x02019e94                __libc_lock_acquire
 .text.__libc_lock_release
                0x02019eac       0x18 C:/devkitPro/devkitARM/bin/../lib/gcc/arm-none-eabi/15.2.0/../../../../arm-none-eabi/lib/thumb\libsysbase.a(libsysbase_libsysbase_a-syscall_support.o)
                0x02019eac                __libc_lock_release
 .text.__libc_lock_acquire_recursive
                0x02019ec4       0x18 C:/devkitPro/devkitARM/bin/../lib/gcc/arm-none-eabi/15.2.0/../../../../arm-none-eabi/lib/thumb\libsysbase.a(libsysbase_libsysbase_a-syscall_support.o)
                0x02019ec4                __libc_lock_acquire_recursive
 .text.__libc_lock_release_recursive
                0x02019edc       0x18 C:/devkitPro/devkitARM/bin/../lib/gcc/arm-none-eabi/15.2.0/../../../../arm-none-eabi/lib/thumb\libsysbase.a(libsysbase_libsysbase_a-syscall_support.o)
                0x02019edc                __libc_lock_release_recursive
 .text._write_r
                0x02019ef4       0x5c C:/devkitPro/devkitARM/bin/../lib/gcc/arm-none-eabi/15.2.0/../../../../arm-none-eabi/lib/thumb\libsysbase.a(libsysbase_libsysbase_a-write.o)
                0x02019ef4                _write_r
 .text          0x02019f50       0x14 C:/devkitPro/devkitARM/bin/../lib/gcc/arm-none-eabi/15.2.0/thumb\libgcc.a(_thumb1_case_uqi.o)
                0x02019f50                __gnu_thumb1_case_uqi
 .text          0x02019f64       0x14 C:/devkitPro/devkitARM/bin/../lib/gcc/arm-none-eabi/15.2.0/thumb\libgcc.a(_thumb1_case_uhi.o)
                0x02019f64                __gnu_thumb1_case_uhi
 .text          0x02019f78      0x11c C:/devkitPro/devkitARM/bin/../lib/gcc/arm-none-eabi/15.2.0/thumb\libgcc.a(_udivsi3.o)
                0x02019f78                __aeabi_uidiv
                0x02019f78                __udivsi3
                0x0201a074                __aeabi_uidivmod
 .text          0x0201a094      0x424 C:/devkitPro/devkitARM/bin/../lib/gcc/arm-none-eabi/15.2.0/thumb\libgcc.a(_arm_addsubdf3.o)
                0x0201a094                __aeabi_drsub
                0x0201a09c                __aeabi_dsub
                0x0201a09c                __subdf3
                0x0201a0a0                __aeabi_dadd
                0x0201a0a0                __adddf3
                0x0201a3b0                __floatunsidf
                0x0201a3b0                __aeabi_ui2d
                0x0201a3d4                __floatsidf
                0x0201a3d4                __aeabi_i2d
                0x0201a3fc                __aeabi_f2d
                0x0201a3fc                __extendsfdf2
                0x0201a444                __floatundidf
                0x0201a444                __aeabi_ul2d
                0x0201a458                __floatdidf
                0x0201a458                __aeabi_l2d
 .text          0x0201a4b8      0x49c C:/devkitPro/devkitARM/bin/../lib/gcc/arm-none-eabi/15.2.0/thumb\libgcc.a(_arm_muldivdf3.o)
                0x0201a4b8                __aeabi_dmul
                0x0201a4b8                __muldf3
                0x0201a748                __divdf3
                0x0201a748                __aeabi_ddiv
 .text          0x0201a954      0x144 C:/devkitPro/devkitARM/bin/../lib/gcc/arm-none-eabi/15.2.0/thumb\libgcc.a(_arm_cmpdf2.o)
                0x0201a954                __gtdf2
                0x0201a954                __gedf2
                0x0201a95c                __ltdf2
                0x0201a95c                __ledf2
                0x0201a964                __nedf2
                0x0201a964                __eqdf2
                0x0201a964                __cmpdf2
                0x0201a9ec                __aeabi_cdrcmple
                0x0201aa08                __aeabi_cdcmpeq
                0x0201aa08                __aeabi_cdcmple
                0x0201aa20                __aeabi_dcmpeq
                0x0201aa38                __aeabi_dcmplt
                0x0201aa50                __aeabi_dcmple
                0x0201aa68                __aeabi_dcmpge
                0x0201aa80                __aeabi_dcmpgt
 .text          0x0201aa98       0x38 C:/devkitPro/devkitARM/bin/../lib/gcc/arm-none-eabi/15.2.0/thumb\libgcc.a(_arm_unorddf2.o)
                0x0201aa98                __unorddf2
                0x0201aa98                __aeabi_dcmpun
 .text          0x0201aad0       0x5c C:/devkitPro/devkitARM/bin/../lib/gcc/arm-none-eabi/15.2.0/thumb\libgcc.a(_arm_fixdfsi.o)
                0x0201aad0                __aeabi_d2iz
                0x0201aad0                __fixdfsi
 .text          0x0201ab2c       0x54 C:/devkitPro/devkitARM/bin/../lib/gcc/arm-none-eabi/15.2.0/thumb\libgcc.a(_arm_fixunsdfsi.o)
                0x0201ab2c                __aeabi_d2uiz
                0x0201ab2c                __fixunsdfsi
 .text          0x0201ab80       0xa0 C:/devkitPro/devkitARM/bin/../lib/gcc/arm-none-eabi/15.2.0/thumb\libgcc.a(_arm_truncdfsf2.o)
                0x0201ab80                __truncdfsf2
                0x0201ab80                __aeabi_d2f
 .text.__muldi3
                0x0201ac20       0x58 C:/devkitPro/devkitARM/bin/../lib/gcc/arm-none-eabi/15.2.0/thumb\libgcc.a(_muldi3.o)
                0x0201ac20                __muldi3
                0x0201ac20                __aeabi_lmul
 .text.__fixdfdi
                0x0201ac78       0x3c C:/devkitPro/devkitARM/bin/../lib/gcc/arm-none-eabi/15.2.0/thumb\libgcc.a(_fixdfdi.o)
                0x0201ac78                __fixdfdi
                0x0201ac78                __aeabi_d2lz
 .text.__fixunsdfdi
                0x0201acb4       0x40 C:/devkitPro/devkitARM/bin/../lib/gcc/arm-none-eabi/15.2.0/thumb\libgcc.a(_fixunsdfdi.o)
                0x0201acb4                __fixunsdfdi
                0x0201acb4                __aeabi_d2ulz
 EXCLUDE_FILE(*.twl.*) *(.glue_7t .glue_7 .vfp11_veneer .v4_bx)
 .glue_7        0x0201acf4        0x0 linker stubs
 .glue_7t       0x0201acf4        0x0 linker stubs
 .vfp11_veneer  0x0201acf4        0x0 linker stubs
 .v4_bx         0x0201acf4        0x0 linker stubs
 *(SORT_NONE(.fini))
 .fini          0x0201acf4        0x4 C:/devkitPro/devkitARM/bin/../lib/gcc/arm-none-eabi/15.2.0/thumb/crti.o
                0x0201acf4                _fini
 .fini          0x0201acf8        0x8 C:/devkitPro/devkitARM/bin/../lib/gcc/arm-none-eabi/15.2.0/thumb/crtn.o
 .fini.__stub   0x0201ad00       0x20 linker stubs
 EXCLUDE_FILE(*.twl.*) *(.rodata .rodata.* .gnu.linkonce.r.*)
 .rodata.str1.4
                0x0201ad20      0x69c main.o
                                0x411 (size before relaxing)
 .rodata.sgIP_DHCP_Init.str1.4
                0x0201b3bc        0x0 C:/devkitPro/libnds/lib\libdswifi9.a(sgIP_DHCP.o)
                                  0xb (size before relaxing)
 .rodata.sgIP_DHCP_BeginDgram.str1.4
                0x0201b3bc        0x0 C:/devkitPro/libnds/lib\libdswifi9.a(sgIP_DHCP.o)
                                  0x9 (size before relaxing)
 .rodata.sgIP_DHCP_Update
                0x0201b3bc        0x7 C:/devkitPro/libnds/lib\libdswifi9.a(sgIP_DHCP.o)
 .rodata.sgIP_DNS_isipaddress
                0x0201b3c3       0x2f C:/devkitPro/libnds/lib\libdswifi9.a(sgIP_DNS.o)
 .rodata.connect
                0x0201b3f2        0xd C:/devkitPro/libnds/lib\libdswifi9.a(sgIP_sockets.o)
 .rodata._wfcOnEvent.part.0.str1.4
                0x0201b3ff        0x0 C:/devkitPro/libnds/lib\libdswifi9.a(wfc.o)
                                  0x7 (size before relaxing)
 .rodata.sgIP_TCP_Timer
                0x0201b3ff        0x9 C:/devkitPro/libnds/lib\libdswifi9.a(sgIP_TCP.o)
 .rodata.sgIP_TCP_ReceivePacket
                0x0201b408       0x1a C:/devkitPro/libnds/lib\libdswifi9.a(sgIP_TCP.o)
 .rodata.con_write.str1.4
                0x0201b422        0x0 C:/devkitPro/libnds/lib\libnds9.a(console.o)
                                 0x30 (size before relaxing)
 *fill*         0x0201b422        0x2 ff
 .rodata.con_write
                0x0201b424       0xd4 C:/devkitPro/libnds/lib\libnds9.a(console.o)
 .rodata.consoleClear.str1.4
                0x0201b4f8        0x0 C:/devkitPro/libnds/lib\libnds9.a(console.o)
                                  0x5 (size before relaxing)
 .rodata.str1.4
                0x0201b4f8        0x0 C:/devkitPro/libnds/lib\libnds9.a(console.o)
                                 0x14 (size before relaxing)
 .rodata.dotab_stdout
                0x0201b4f8       0x80 C:/devkitPro/libnds/lib\libnds9.a(console.o)
 .rodata.default_font_bin
                0x0201b578      0x800 C:/devkitPro/libnds/lib\libnds9.a(default_font.bin.o)
                0x0201b578                default_font_bin
                0x0201bd78                default_font_bin_end
 .rodata.SIN_LUT
                0x0201bd78      0x102 C:/devkitPro/libnds/lib\libnds9.a(trig.o)
                0x0201bd78                SIN_LUT
 *fill*         0x0201be7a        0x2 ff
 .rodata.s_netbufListSizes
                0x0201be7c        0xa C:/devkitPro/calico/lib\libcalico_ds9.a(netbuf.o)
 .rodata._wlmgrThreadMain
                0x0201be86        0x4 C:/devkitPro/calico/lib\libcalico_ds9.a(wlmgr.o)
 *fill*         0x0201be8a        0x2 ff
 .rodata.g_wlmgrDefaultConfig
                0x0201be8c        0xc C:/devkitPro/calico/lib\libcalico_ds9.a(wlmgr.o)
                0x0201be8c                g_wlmgrDefaultConfig
 .rodata        0x0201be98       0x16 C:/devkitPro/calico/lib\libcalico_ds9.a(wlmgr.o)
 .rodata._svfprintf_r.str1.1
                0x0201beae       0x40 C:/devkitPro/devkitARM/bin/../lib/gcc/arm-none-eabi/15.2.0/../../../../arm-none-eabi/lib/thumb\libg.a(libc_a-svfprintf.o)
                                 0x3b (size before relaxing)
 *fill*         0x0201beee        0x2 ff
 .rodata.zeroes.0
                0x0201bef0       0x10 C:/devkitPro/devkitARM/bin/../lib/gcc/arm-none-eabi/15.2.0/../../../../arm-none-eabi/lib/thumb\libg.a(libc_a-svfprintf.o)
 .rodata.blanks.1
                0x0201bf00       0x10 C:/devkitPro/devkitARM/bin/../lib/gcc/arm-none-eabi/15.2.0/../../../../arm-none-eabi/lib/thumb\libg.a(libc_a-svfprintf.o)
 .rodata.__action_table
                0x0201bf10       0x6c C:/devkitPro/devkitARM/bin/../lib/gcc/arm-none-eabi/15.2.0/../../../../arm-none-eabi/lib/thumb\libg.a(libc_a-svfiprintf.o)
                0x0201bf10                __action_table
 .rodata.__state_table
                0x0201bf7c       0x6c C:/devkitPro/devkitARM/bin/../lib/gcc/arm-none-eabi/15.2.0/../../../../arm-none-eabi/lib/thumb\libg.a(libc_a-svfiprintf.o)
                0x0201bf7c                __state_table
 .rodata.__chclass
                0x0201bfe8      0x100 C:/devkitPro/devkitARM/bin/../lib/gcc/arm-none-eabi/15.2.0/../../../../arm-none-eabi/lib/thumb\libg.a(libc_a-svfiprintf.o)
                0x0201bfe8                __chclass
 .rodata.str1.4
                0x0201c0e8        0x0 C:/devkitPro/devkitARM/bin/../lib/gcc/arm-none-eabi/15.2.0/../../../../arm-none-eabi/lib/thumb\libg.a(libc_a-locale.o)
                                 0x4c (size before relaxing)
 .rodata._vfiprintf_r.str1.1
                0x0201c0e8        0x0 C:/devkitPro/devkitARM/bin/../lib/gcc/arm-none-eabi/15.2.0/../../../../arm-none-eabi/lib/thumb\libg.a(libc_a-vfiprintf.o)
                                 0x29 (size before relaxing)
 .rodata.zeroes.0
                0x0201c0e8       0x10 C:/devkitPro/devkitARM/bin/../lib/gcc/arm-none-eabi/15.2.0/../../../../arm-none-eabi/lib/thumb\libg.a(libc_a-vfiprintf.o)
 .rodata.blanks.1
                0x0201c0f8       0x10 C:/devkitPro/devkitARM/bin/../lib/gcc/arm-none-eabi/15.2.0/../../../../arm-none-eabi/lib/thumb\libg.a(libc_a-vfiprintf.o)
 .rodata.basefix.0
                0x0201c108       0x22 C:/devkitPro/devkitARM/bin/../lib/gcc/arm-none-eabi/15.2.0/../../../../arm-none-eabi/lib/thumb\libg.a(libc_a-svfiscanf.o)
 .rodata._dtoa_r.str1.4
                0x0201c12a        0x0 C:/devkitPro/devkitARM/bin/../lib/gcc/arm-none-eabi/15.2.0/../../../../arm-none-eabi/lib/thumb\libg.a(libc_a-dtoa.o)
                                 0x9c (size before relaxing)
 *fill*         0x0201c12a        0x2 ff
 .rodata._ctype_
                0x0201c12c      0x101 C:/devkitPro/devkitARM/bin/../lib/gcc/arm-none-eabi/15.2.0/../../../../arm-none-eabi/lib/thumb\libg.a(libc_a-ctype_.o)
                0x0201c12c                _ctype_
 .rodata.__ssvfscanf_r.str1.1
                0x0201c22d        0x0 C:/devkitPro/devkitARM/bin/../lib/gcc/arm-none-eabi/15.2.0/../../../../arm-none-eabi/lib/thumb\libg.a(libc_a-svfscanf.o)
                                  0x6 (size before relaxing)
 *fill*         0x0201c22d        0x3 ff
 .rodata.basefix.0
                0x0201c230       0x22 C:/devkitPro/devkitARM/bin/../lib/gcc/arm-none-eabi/15.2.0/../../../../arm-none-eabi/lib/thumb\libg.a(libc_a-svfscanf.o)
 .rodata._mbrtowc_r.str1.4
                0x0201c252        0x0 C:/devkitPro/devkitARM/bin/../lib/gcc/arm-none-eabi/15.2.0/../../../../arm-none-eabi/lib/thumb\libg.a(libc_a-mbrtowc.o)
                                  0x1 (size before relaxing)
 .rodata.__assert_func.str1.4
                0x0201c252        0x0 C:/devkitPro/devkitARM/bin/../lib/gcc/arm-none-eabi/15.2.0/../../../../arm-none-eabi/lib/thumb\libg.a(libc_a-assert.o)
                                 0x43 (size before relaxing)
 .rodata.__multadd.str1.4
                0x0201c252        0x0 C:/devkitPro/devkitARM/bin/../lib/gcc/arm-none-eabi/15.2.0/../../../../arm-none-eabi/lib/thumb\libg.a(libc_a-mprec.o)
                                 0x89 (size before relaxing)
 *fill*         0x0201c252        0x2 ff
 .rodata.p05.0  0x0201c254        0xc C:/devkitPro/devkitARM/bin/../lib/gcc/arm-none-eabi/15.2.0/../../../../arm-none-eabi/lib/thumb\libg.a(libc_a-mprec.o)
 .rodata.__mprec_bigtens
                0x0201c260       0x28 C:/devkitPro/devkitARM/bin/../lib/gcc/arm-none-eabi/15.2.0/../../../../arm-none-eabi/lib/thumb\libg.a(libc_a-mprec.o)
                0x0201c260                __mprec_bigtens
 .rodata.__mprec_tens
                0x0201c288       0xc8 C:/devkitPro/devkitARM/bin/../lib/gcc/arm-none-eabi/15.2.0/../../../../arm-none-eabi/lib/thumb\libg.a(libc_a-mprec.o)
                0x0201c288                __mprec_tens
 .rodata._strtod_l.str1.4
                0x0201c350        0x0 C:/devkitPro/devkitARM/bin/../lib/gcc/arm-none-eabi/15.2.0/../../../../arm-none-eabi/lib/thumb\libg.a(libc_a-strtod.o)
                                 0x15 (size before relaxing)
 .rodata._strtod_l
                0x0201c350       0xd0 C:/devkitPro/devkitARM/bin/../lib/gcc/arm-none-eabi/15.2.0/../../../../arm-none-eabi/lib/thumb\libg.a(libc_a-strtod.o)
 .rodata.fpinan.0
                0x0201c420       0x14 C:/devkitPro/devkitARM/bin/../lib/gcc/arm-none-eabi/15.2.0/../../../../arm-none-eabi/lib/thumb\libg.a(libc_a-strtod.o)
 .rodata.fpi.1  0x0201c434       0x14 C:/devkitPro/devkitARM/bin/../lib/gcc/arm-none-eabi/15.2.0/../../../../arm-none-eabi/lib/thumb\libg.a(libc_a-strtod.o)
 .rodata.tinytens
                0x0201c448       0x28 C:/devkitPro/devkitARM/bin/../lib/gcc/arm-none-eabi/15.2.0/../../../../arm-none-eabi/lib/thumb\libg.a(libc_a-strtod.o)
 .rodata.__gethex.str1.4
                0x0201c470        0x0 C:/devkitPro/devkitARM/bin/../lib/gcc/arm-none-eabi/15.2.0/../../../../arm-none-eabi/lib/thumb\libg.a(libc_a-gdtoa-gethex.o)
                                 0x94 (size before relaxing)
 .rodata.__hexdig
                0x0201c470      0x100 C:/devkitPro/devkitARM/bin/../lib/gcc/arm-none-eabi/15.2.0/../../../../arm-none-eabi/lib/thumb\libg.a(libc_a-gdtoa-gethex.o)
                0x0201c470                __hexdig
 .rodata.categories
                0x0201c570     0x35dc C:/devkitPro/devkitARM/bin/../lib/gcc/arm-none-eabi/15.2.0/../../../../arm-none-eabi/lib/thumb\libg.a(libc_a-categories.o)
 .rodata.AddDevice.str1.4
                0x0201fb4c        0x0 C:/devkitPro/devkitARM/bin/../lib/gcc/arm-none-eabi/15.2.0/../../../../arm-none-eabi/lib/thumb\libsysbase.a(libsysbase_libsysbase_a-iosupport.o)
                                  0x8 (size before relaxing)
 .rodata.dotab_stdnull
                0x0201fb4c       0x80 C:/devkitPro/devkitARM/bin/../lib/gcc/arm-none-eabi/15.2.0/../../../../arm-none-eabi/lib/thumb\libsysbase.a(libsysbase_libsysbase_a-iosupport.o)
                0x0201fb4c                dotab_stdnull
 EXCLUDE_FILE(*.twl.*) *(.rodata1)
                0x0201fbcc                        . = ALIGN (0x4)

.main.rw        0x0201fbd0     0x1848 load address 0x02023e44
 EXCLUDE_FILE(*.twl.*) *(.data .data.* .gnu.linkonce.d.*)
 .data.firstConsoleInit.0
                0x0201fbd0        0x1 C:/devkitPro/libnds/lib\libnds9.a(console.o)
 *fill*         0x0201fbd1        0x3 ff
 .data.currentConsole
                0x0201fbd4        0x4 C:/devkitPro/libnds/lib\libnds9.a(console.o)
                0x0201fbd4                currentConsole
 .data.defaultConsole
                0x0201fbd8       0x5c C:/devkitPro/libnds/lib\libnds9.a(console.o)
                0x0201fbd8                defaultConsole
 .data.count    0x0201fc34        0x1 C:/devkitPro/libnds/lib\libnds9.a(keys.o)
 .data.repeat   0x0201fc35        0x1 C:/devkitPro/libnds/lib\libnds9.a(keys.o)
 .data.delay    0x0201fc36        0x1 C:/devkitPro/libnds/lib\libnds9.a(keys.o)
 *fill*         0x0201fc37        0x1 ff
 .data.bgTransform
                0x0201fc38       0x20 C:/devkitPro/libnds/lib\libnds9.a(background.o)
                0x0201fc38                bgTransform
 .data.bgScrollTable
                0x0201fc58       0x20 C:/devkitPro/libnds/lib\libnds9.a(background.o)
                0x0201fc58                bgScrollTable
 .data.bgControl
                0x0201fc78       0x20 C:/devkitPro/libnds/lib\libnds9.a(background.o)
                0x0201fc78                bgControl
 .data.__malloc_sbrk_base
                0x0201fc98        0x4 C:/devkitPro/devkitARM/bin/../lib/gcc/arm-none-eabi/15.2.0/../../../../arm-none-eabi/lib/thumb\libg.a(libc_a-mallocr.o)
                0x0201fc98                __malloc_sbrk_base
 .data.__malloc_trim_threshold
                0x0201fc9c        0x4 C:/devkitPro/devkitARM/bin/../lib/gcc/arm-none-eabi/15.2.0/../../../../arm-none-eabi/lib/thumb\libg.a(libc_a-mallocr.o)
                0x0201fc9c                __malloc_trim_threshold
 .data.__malloc_av_
                0x0201fca0      0x408 C:/devkitPro/devkitARM/bin/../lib/gcc/arm-none-eabi/15.2.0/../../../../arm-none-eabi/lib/thumb\libg.a(libc_a-mallocr.o)
                0x0201fca0                __malloc_av_
 .data.__global_locale
                0x020200a8      0x16c C:/devkitPro/devkitARM/bin/../lib/gcc/arm-none-eabi/15.2.0/../../../../arm-none-eabi/lib/thumb\libg.a(libc_a-locale.o)
                0x020200a8                __global_locale
 .data.__sglue  0x02020214        0xc C:/devkitPro/devkitARM/bin/../lib/gcc/arm-none-eabi/15.2.0/../../../../arm-none-eabi/lib/thumb\libg.a(libc_a-findfp.o)
                0x02020214                __sglue
 .data._impure_ptr
                0x02020220        0x4 C:/devkitPro/devkitARM/bin/../lib/gcc/arm-none-eabi/15.2.0/../../../../arm-none-eabi/lib/thumb\libg.a(libc_a-impure.o)
                0x02020220                _impure_ptr
 *fill*         0x02020224        0x4 ff
 .data._impure_data
                0x02020228      0x140 C:/devkitPro/devkitARM/bin/../lib/gcc/arm-none-eabi/15.2.0/../../../../arm-none-eabi/lib/thumb\libg.a(libc_a-impure.o)
                0x02020228                _impure_data
 .data.handles  0x02020368     0x1000 C:/devkitPro/devkitARM/bin/../lib/gcc/arm-none-eabi/15.2.0/../../../../arm-none-eabi/lib/thumb\libsysbase.a(libsysbase_libsysbase_a-handle_manager.o)
 .data.__stderr_handle
                0x02021368        0xc C:/devkitPro/devkitARM/bin/../lib/gcc/arm-none-eabi/15.2.0/../../../../arm-none-eabi/lib/thumb\libsysbase.a(libsysbase_libsysbase_a-handle_manager.o)
 .data.__stdout_handle
                0x02021374        0xc C:/devkitPro/devkitARM/bin/../lib/gcc/arm-none-eabi/15.2.0/../../../../arm-none-eabi/lib/thumb\libsysbase.a(libsysbase_libsysbase_a-handle_manager.o)
 .data.__stdin_handle
                0x02021380        0xc C:/devkitPro/devkitARM/bin/../lib/gcc/arm-none-eabi/15.2.0/../../../../arm-none-eabi/lib/thumb\libsysbase.a(libsysbase_libsysbase_a-handle_manager.o)
 .data.devoptab_list
                0x0202138c       0x8c C:/devkitPro/devkitARM/bin/../lib/gcc/arm-none-eabi/15.2.0/../../../../arm-none-eabi/lib/thumb\libsysbase.a(libsysbase_libsysbase_a-iosupport.o)
                0x0202138c                devoptab_list
 EXCLUDE_FILE(*.twl.*) *(.data1)
 EXCLUDE_FILE(*.twl.*) *(.igot.plt)
 .igot.plt      0x02021418        0x0 C:/devkitPro/devkitARM/bin/../lib/gcc/arm-none-eabi/15.2.0/thumb/crtbegin.o
                0x02021418                        . = ALIGN (0x4)

.ARM.extab
 *(.ARM.extab* .gnu.linkonce.armextab.*)

.ARM.exidx      0x02021418        0x0 load address 0x0202568c
 *(.ARM.exidx* .gnu.linkonce.armexidx.*)
                [!provide]                        PROVIDE (__exidx_start = ADDR (.ARM.exidx))
                [!provide]                        PROVIDE (__exidx_end = (ADDR (.ARM.exidx) + SIZEOF (.ARM.exidx)))

.eh_frame_hdr
 *(.eh_frame_hdr)
 *(.eh_frame_entry .eh_frame_entry.*)

.eh_frame       0x02021418        0x4 load address 0x0202568c
 *(.eh_frame)
 .eh_frame      0x02021418        0x0 C:/devkitPro/devkitARM/bin/../lib/gcc/arm-none-eabi/15.2.0/thumb/crtbegin.o
 .eh_frame      0x02021418        0x4 C:/devkitPro/devkitARM/bin/../lib/gcc/arm-none-eabi/15.2.0/thumb/crtend.o
 *(.eh_frame.*)

.gcc_except_table
 *(.gcc_except_table .gcc_except_table.*)

.gnu_extab
 *(.gnu_extab*)

.tinfo          0x0202141c        0xc load address 0x02025690
                0x0202141c        0x4 LONG 0x2021430 __tls_start
                0x02021420        0x4 LONG 0x0 SIZEOF (.main.tls)
                0x02021424        0x4 LONG 0x0 SIZEOF (.tdata)
                0x0202141c                        PROVIDE (__tls_info = ADDR (.tinfo))

.preinit_array  0x02021428        0x0 load address 0x0202569c
                0x02021428                        PROVIDE (__preinit_array_start = .)
 *(.preinit_array)
                0x02021428                        PROVIDE (__preinit_array_end = .)

.init_array     0x02021428        0x4 load address 0x0202569c
                0x02021428                        PROVIDE (__init_array_start = .)
 *(SORT_BY_INIT_PRIORITY(.init_array.*) SORT_BY_INIT_PRIORITY(.ctors.*))
 *(.init_array .ctors)
 .init_array    0x02021428        0x4 C:/devkitPro/devkitARM/bin/../lib/gcc/arm-none-eabi/15.2.0/thumb/crtbegin.o
                0x0202142c                        PROVIDE (__init_array_end = .)

.fini_array     0x0202142c        0x4 load address 0x020256a0
                0x0202142c                        PROVIDE (__fini_array_start = .)
 *(SORT_BY_INIT_PRIORITY(.fini_array.*) SORT_BY_INIT_PRIORITY(.dtors.*))
 *(.fini_array .dtors)
 .fini_array    0x0202142c        0x4 C:/devkitPro/devkitARM/bin/../lib/gcc/arm-none-eabi/15.2.0/thumb/crtbegin.o
                0x02021430                        PROVIDE (__fini_array_end = .)
                [!provide]                        PROVIDE (__main_lma = LOADADDR (.main))
                0x020013c0                        PROVIDE (__main_start = ADDR (.main))
                0x02021430                        PROVIDE (__main_end = (ADDR (.fini_array) + SIZEOF (.fini_array)))

.tdata          0x00000000        0x0 load address 0x020256a4
 *(.tdata .tdata.* .gnu.linkonce.td.*)
                0x00000000                        . = ALIGN (0x4)

.tbss           0x00000000        0x0 load address 0x020256a4
 *(.tbss .tbss.* .gnu.linkonce.tb.*)
 *(.tcommon)
                0x00000000                        . = ALIGN (0x4)
                0x00000001                        ASSERT (((ALIGNOF (.tdata) <= 0x8) || (ALIGNOF (.tbss) <= 0x8)), Error: TLS is overaligned (up to 8-byte alignment is supported))
                0x00000001                        ASSERT (((ADDR (.tbss) + SIZEOF (.tbss)) <= (ORIGIN (tls) + LENGTH (tls))), Error: TLS section too large)

.main.tls       0x02021430        0x0
                0x02021430                        . = (. + ((ADDR (.tbss) + SIZEOF (.tbss)) - ADDR (.tdata)))
                [!provide]                        PROVIDE (__tls_lma = LOADADDR (.tdata))
                0x02021430                        PROVIDE (__tls_start = ADDR (.main.tls))
                0x02021430                        PROVIDE (__tls_end = (ADDR (.main.tls) + SIZEOF (.tdata)))

.main.bss       0x02021440    0x11a74
 EXCLUDE_FILE(*.twl.*) *(.dynbss)
 EXCLUDE_FILE(*.twl.*) *(.bss .bss.* .gnu.linkonce.b.*)
 .bss.completed.1
                0x02021440        0x1 C:/devkitPro/devkitARM/bin/../lib/gcc/arm-none-eabi/15.2.0/thumb/crtbegin.o
 *fill*         0x02021441        0x3 
 .bss.object.0  0x02021444       0x18 C:/devkitPro/devkitARM/bin/../lib/gcc/arm-none-eabi/15.2.0/thumb/crtbegin.o
 .bss           0x0202145c        0x4 main.o
                0x0202145c                frame
 .bss.dhcp_serverip
                0x02021460        0x4 C:/devkitPro/libnds/lib\libdswifi9.a(sgIP_DHCP.o)
                0x02021460                dhcp_serverip
 *fill*         0x02021464        0x4 
 .bss.dhcp_rcvd_dns
                0x02021468        0xc C:/devkitPro/libnds/lib\libdswifi9.a(sgIP_DHCP.o)
                0x02021468                dhcp_rcvd_dns
 .bss.dhcp_rcvd_snmask
                0x02021474        0x4 C:/devkitPro/libnds/lib\libdswifi9.a(sgIP_DHCP.o)
                0x02021474                dhcp_rcvd_snmask
 .bss.dhcp_rcvd_gateway
                0x02021478        0x4 C:/devkitPro/libnds/lib\libdswifi9.a(sgIP_DHCP.o)
                0x02021478                dhcp_rcvd_gateway
 .bss.dhcp_rcvd_ip
                0x0202147c        0x4 C:/devkitPro/libnds/lib\libdswifi9.a(sgIP_DHCP.o)
                0x0202147c                dhcp_rcvd_ip
 .bss.dhcp_state
                0x02021480        0x4 C:/devkitPro/libnds/lib\libdswifi9.a(sgIP_DHCP.o)
                0x02021480                dhcp_state
 .bss.dhcp_status
                0x02021484        0x4 C:/devkitPro/libnds/lib\libdswifi9.a(sgIP_DHCP.o)
                0x02021484                dhcp_status
 .bss.dhcp_requestDNS
                0x02021488        0x4 C:/devkitPro/libnds/lib\libdswifi9.a(sgIP_DHCP.o)
                0x02021488                dhcp_requestDNS
 .bss.dhcp_optionptr
                0x0202148c        0x4 C:/devkitPro/libnds/lib\libdswifi9.a(sgIP_DHCP.o)
                0x0202148c                dhcp_optionptr
 .bss.dhcp_int  0x02021490        0x4 C:/devkitPro/libnds/lib\libdswifi9.a(sgIP_DHCP.o)
                0x02021490                dhcp_int
 .bss.dhcp_p    0x02021494        0x4 C:/devkitPro/libnds/lib\libdswifi9.a(sgIP_DHCP.o)
                0x02021494                dhcp_p
 .bss.dhcp_timelastaction
                0x02021498        0x4 C:/devkitPro/libnds/lib\libdswifi9.a(sgIP_DHCP.o)
                0x02021498                dhcp_timelastaction
 .bss.dhcp_timestart
                0x0202149c        0x4 C:/devkitPro/libnds/lib\libdswifi9.a(sgIP_DHCP.o)
                0x0202149c                dhcp_timestart
 .bss.dhcp_tid  0x020214a0        0x4 C:/devkitPro/libnds/lib\libdswifi9.a(sgIP_DHCP.o)
                0x020214a0                dhcp_tid
 .bss.dhcp_hostname
                0x020214a4       0x40 C:/devkitPro/libnds/lib\libdswifi9.a(sgIP_DHCP.o)
                0x020214a4                dhcp_hostname
 .bss.dhcp_socket
                0x020214e4        0x4 C:/devkitPro/libnds/lib\libdswifi9.a(sgIP_DHCP.o)
                0x020214e4                dhcp_socket
 .bss.ipaddr_alias
                0x020214e8      0x100 C:/devkitPro/libnds/lib\libdswifi9.a(sgIP_DNS.o)
                0x020214e8                ipaddr_alias
 .bss.dnsrecords
                0x020215e8     0x5240 C:/devkitPro/libnds/lib\libdswifi9.a(sgIP_DNS.o)
                0x020215e8                dnsrecords
 .bss.time_count
                0x02026828        0x4 C:/devkitPro/libnds/lib\libdswifi9.a(sgIP_DNS.o)
                0x02026828                time_count
 .bss.dns_sock  0x0202682c        0x4 C:/devkitPro/libnds/lib\libdswifi9.a(sgIP_DNS.o)
                0x0202682c                dns_sock
 .bss.socketlist
                0x02026830      0x100 C:/devkitPro/libnds/lib\libdswifi9.a(sgIP_sockets.o)
                0x02026830                socketlist
 .bss.initted.0
                0x02026930        0x1 C:/devkitPro/libnds/lib\libdswifi9.a(wfc.o)
 *fill*         0x02026931        0x3 
 .bss.s_wfcState
                0x02026934       0x1c C:/devkitPro/libnds/lib\libdswifi9.a(wfc.o)
 .bss.s_wfcIPThreadStack
                0x02026950      0x800 C:/devkitPro/libnds/lib\libdswifi9.a(wfc.o)
 .bss.s_wfcIPThread
                0x02027150       0x70 C:/devkitPro/libnds/lib\libdswifi9.a(wfc.o)
 .bss.s_wfcBssDesc
                0x020271c0      0x640 C:/devkitPro/libnds/lib\libdswifi9.a(wfc.o)
 .bss.s_wfcSlots
                0x02027800      0xc00 C:/devkitPro/libnds/lib\libdswifi9.a(wfc.o)
 .bss.count_1000ms
                0x02028400        0x4 C:/devkitPro/libnds/lib\libdswifi9.a(sgIP.o)
                0x02028400                count_1000ms
 .bss.count_100ms
                0x02028404        0x4 C:/devkitPro/libnds/lib\libdswifi9.a(sgIP.o)
                0x02028404                count_100ms
 .bss.sgIP_mutex
                0x02028408        0x8 C:/devkitPro/libnds/lib\libdswifi9.a(sgIP.o)
                0x02028408                sgIP_mutex
 .bss.sgIP_timems
                0x02028410        0x4 C:/devkitPro/libnds/lib\libdswifi9.a(sgIP.o)
                0x02028410                sgIP_timems
 .bss.HWInterfaces
                0x02028414       0x30 C:/devkitPro/libnds/lib\libdswifi9.a(sgIP_Hub.o)
                0x02028414                HWInterfaces
 .bss.ProtocolInterfaces
                0x02028444        0x8 C:/devkitPro/libnds/lib\libdswifi9.a(sgIP_Hub.o)
                0x02028444                ProtocolInterfaces
 .bss.NumProtocolInterfaces
                0x0202844c        0x4 C:/devkitPro/libnds/lib\libdswifi9.a(sgIP_Hub.o)
                0x0202844c                NumProtocolInterfaces
 .bss.NumHWInterfaces
                0x02028450        0x4 C:/devkitPro/libnds/lib\libdswifi9.a(sgIP_Hub.o)
                0x02028450                NumHWInterfaces
 .bss.idnum_count
                0x02028454        0x4 C:/devkitPro/libnds/lib\libdswifi9.a(sgIP_IP.o)
                0x02028454                idnum_count
 .bss.ArpRecords
                0x02028458      0x400 C:/devkitPro/libnds/lib\libdswifi9.a(sgIP_ARP.o)
                0x02028458                ArpRecords
 .bss.numsynlist
                0x02028858        0x4 C:/devkitPro/libnds/lib\libdswifi9.a(sgIP_TCP.o)
                0x02028858                numsynlist
 *fill*         0x0202885c        0x4 
 .bss.synlist   0x02028860      0x800 C:/devkitPro/libnds/lib\libdswifi9.a(sgIP_TCP.o)
                0x02028860                synlist
 .bss.lasttime  0x02029060        0x4 C:/devkitPro/libnds/lib\libdswifi9.a(sgIP_TCP.o)
                0x02029060                lasttime
 .bss.port_counter
                0x02029064        0x4 C:/devkitPro/libnds/lib\libdswifi9.a(sgIP_TCP.o)
                0x02029064                port_counter
 .bss.tcprecords
                0x02029068        0x4 C:/devkitPro/libnds/lib\libdswifi9.a(sgIP_TCP.o)
                0x02029068                tcprecords
 .bss.udpport_counter
                0x0202906c        0x4 C:/devkitPro/libnds/lib\libdswifi9.a(sgIP_UDP.o)
                0x0202906c                udpport_counter
 .bss.udprecords
                0x02029070        0x4 C:/devkitPro/libnds/lib\libdswifi9.a(sgIP_UDP.o)
                0x02029070                udprecords
 .bss.currentCopy
                0x02029074       0x5c C:/devkitPro/libnds/lib\libnds9.a(console.o)
                0x02029074                currentCopy
 .bss.keysrepeat
                0x020290d0        0x2 C:/devkitPro/libnds/lib\libnds9.a(keys.o)
 *fill*         0x020290d2        0x2 
 .bss.s_keypad  0x020290d4        0x4 C:/devkitPro/libnds/lib\libnds9.a(keys.o)
 .bss.bgIsTextLut
                0x020290d8        0x8 C:/devkitPro/libnds/lib\libnds9.a(background.o)
                0x020290d8                bgIsTextLut
 .bss.bgState   0x020290e0      0x140 C:/devkitPro/libnds/lib\libnds9.a(background.o)
                0x020290e0                bgState
 .bss.s_firstTask
                0x02029220        0x4 C:/devkitPro/calico/lib\libcalico_ds9.a(tick.o)
 *fill*         0x02029224        0x4 
 .bss.s_highTickCount
                0x02029228        0x8 C:/devkitPro/calico/lib\libcalico_ds9.a(tick.o)
 .bss.s_tickInit
                0x02029230        0x1 C:/devkitPro/calico/lib\libcalico_ds9.a(tick.o)
 *fill*         0x02029231        0x3 
 .bss.s_sleepThreads
                0x02029234        0x8 C:/devkitPro/calico/lib\libcalico_ds9.a(thread_cold.o)
 .bss.s_joinThreads
                0x0202923c        0x8 C:/devkitPro/calico/lib\libcalico_ds9.a(thread_cold.o)
 .bss.s_idleThread
                0x02029244       0x70 C:/devkitPro/calico/lib\libcalico_ds9.a(thread_cold.o)
 .bss.s_mainThread
                0x020292b4       0x70 C:/devkitPro/calico/lib\libcalico_ds9.a(thread_cold.o)
 .bss.s_mailboxRecvQueue
                0x02029324        0x8 C:/devkitPro/calico/lib\libcalico_ds9.a(mailbox.o)
 .bss.s_defaultErrno.0
                0x0202932c        0x4 C:/devkitPro/calico/lib\libcalico_ds9.a(newlib_syscalls.o)
 .bss.__stacksize__
                0x02029330        0x4 C:/devkitPro/calico/lib\libcalico_ds9.a(startup.crt0.o)
                0x02029330                __stacksize__
 .bss.g_isTwlMode
                0x02029334        0x1 C:/devkitPro/calico/lib\libcalico_ds9.a(startup.crt0.o)
                0x02029334                g_isTwlMode
 *fill*         0x02029335        0x3 
 .bss.s_pxiChannels
                0x02029338      0x1f0 C:/devkitPro/calico/lib\libcalico_ds9.a(pxi.o)
 .bss.s_pxiRecvState
                0x02029528        0x4 C:/devkitPro/calico/lib\libcalico_ds9.a(pxi.o)
 .bss.s_pxiRecvQueue
                0x0202952c        0x8 C:/devkitPro/calico/lib\libcalico_ds9.a(pxi.o)
 .bss.s_pxiSendMutex
                0x02029534        0x4 C:/devkitPro/calico/lib\libcalico_ds9.a(pxi.o)
 .bss.initted.0
                0x02029538        0x1 C:/devkitPro/calico/lib\libcalico_ds9.a(wlmgr.o)
 *fill*         0x02029539        0x7 
 .bss.s_wlmgrState
                0x02029540       0x40 C:/devkitPro/calico/lib\libcalico_ds9.a(wlmgr.o)
 .bss.s_wlmgrDefaultPacketHeap
                0x02029580     0x8c80 C:/devkitPro/calico/lib\libcalico_ds9.a(wlmgr.o)
 .bss.s_wlmgrThreadStack
                0x02032200      0x800 C:/devkitPro/calico/lib\libcalico_ds9.a(wlmgr.o)
 .bss.s_wlmgrThread
                0x02032a00       0x70 C:/devkitPro/calico/lib\libcalico_ds9.a(wlmgr.o)
 .bss.s_pmPxiThreadStack
                0x02032a70      0x200 C:/devkitPro/calico/lib\libcalico_ds9.a(pm.o)
 .bss.s_pmPxiThread
                0x02032c70       0x70 C:/devkitPro/calico/lib\libcalico_ds9.a(pm.o)
 .bss.s_pmState
                0x02032ce0        0x8 C:/devkitPro/calico/lib\libcalico_ds9.a(pm.o)
 .bss.__malloc_current_mallinfo
                0x02032ce8       0x28 C:/devkitPro/devkitARM/bin/../lib/gcc/arm-none-eabi/15.2.0/../../../../arm-none-eabi/lib/thumb\libg.a(libc_a-mallocr.o)
                0x02032ce8                __malloc_current_mallinfo
 .bss.__malloc_max_total_mem
                0x02032d10        0x4 C:/devkitPro/devkitARM/bin/../lib/gcc/arm-none-eabi/15.2.0/../../../../arm-none-eabi/lib/thumb\libg.a(libc_a-mallocr.o)
                0x02032d10                __malloc_max_total_mem
 .bss.__malloc_max_sbrked_mem
                0x02032d14        0x4 C:/devkitPro/devkitARM/bin/../lib/gcc/arm-none-eabi/15.2.0/../../../../arm-none-eabi/lib/thumb\libg.a(libc_a-mallocr.o)
                0x02032d14                __malloc_max_sbrked_mem
 .bss.__malloc_top_pad
                0x02032d18        0x4 C:/devkitPro/devkitARM/bin/../lib/gcc/arm-none-eabi/15.2.0/../../../../arm-none-eabi/lib/thumb\libg.a(libc_a-mallocr.o)
                0x02032d18                __malloc_top_pad
 .bss.__malloc_recursive_mutex
                0x02032d1c        0xc C:/devkitPro/devkitARM/bin/../lib/gcc/arm-none-eabi/15.2.0/../../../../arm-none-eabi/lib/thumb\libg.a(libc_a-mlock.o)
 .bss.__sfp_recursive_mutex
                0x02032d28        0xc C:/devkitPro/devkitARM/bin/../lib/gcc/arm-none-eabi/15.2.0/../../../../arm-none-eabi/lib/thumb\libg.a(libc_a-findfp.o)
 *fill*         0x02032d34        0x4 
 .bss.__sf      0x02032d38      0x168 C:/devkitPro/devkitARM/bin/../lib/gcc/arm-none-eabi/15.2.0/../../../../arm-none-eabi/lib/thumb\libg.a(libc_a-findfp.o)
                0x02032d38                __sf
 .bss.__stdio_exit_handler
                0x02032ea0        0x4 C:/devkitPro/devkitARM/bin/../lib/gcc/arm-none-eabi/15.2.0/../../../../arm-none-eabi/lib/thumb\libg.a(libc_a-findfp.o)
                0x02032ea0                __stdio_exit_handler
 .bss.__hndl_lock
                0x02032ea4        0x4 C:/devkitPro/devkitARM/bin/../lib/gcc/arm-none-eabi/15.2.0/../../../../arm-none-eabi/lib/thumb\libsysbase.a(libsysbase_libsysbase_a-handle_manager.o)
 .bss.fake_heap_start
                0x02032ea8        0x4 C:/devkitPro/devkitARM/bin/../lib/gcc/arm-none-eabi/15.2.0/../../../../arm-none-eabi/lib/thumb\libsysbase.a(libsysbase_libsysbase_a-malloc_vars.o)
                0x02032ea8                fake_heap_start
 .bss.fake_heap_end
                0x02032eac        0x4 C:/devkitPro/devkitARM/bin/../lib/gcc/arm-none-eabi/15.2.0/../../../../arm-none-eabi/lib/thumb\libsysbase.a(libsysbase_libsysbase_a-malloc_vars.o)
                0x02032eac                fake_heap_end
 .bss.heap_start.0
                0x02032eb0        0x4 C:/devkitPro/devkitARM/bin/../lib/gcc/arm-none-eabi/15.2.0/../../../../arm-none-eabi/lib/thumb\libsysbase.a(libsysbase_libsysbase_a-sbrk.o)
 EXCLUDE_FILE(*.twl.*) *(COMMON)
                0x02032eb4                        . = ALIGN (0x4)
                [!provide]                        PROVIDE (__main_bss_start = ADDR (.main.bss))
                0x02032eb4                        PROVIDE (__main_bss_end = (ADDR (.main.bss) + SIZEOF (.main.bss)))
                0x02032eb4                        . = .
                0x02032eb4                        PROVIDE (__heap_start_ntr = .)
                0x00000001                        ASSERT ((. <= 0x2380000), Error: DS-mode sections overflow DS ARM9 memory size (3.5 MB))

.twl            0x02032ec0        0x0 load address 0x02400000
 *(.twl .twl.*)
 *.twl.*(.text .stub .text.* .gnu.linkonce.t.*)
 *.twl.*(.glue_7t .glue_7 .vfp11_veneer .v4_bx)
 *.twl.*(.rodata .rodata.* .gnu.linkonce.r.*)
 *.twl.*(.rodata1)
                0x02032ec0                        . = ALIGN (0x4)

.twl.rw         0x02032ec0        0x0 load address 0x02400000
 *.twl.*(.data .data.* .gnu.linkonce.d.*)
 *.twl.*(.data1)
                0x02032ec0                        . = ALIGN (0x4)
                0x02400000                        PROVIDE (__twl_lma = LOADADDR (.twl))
                0x02032ec0                        PROVIDE (__twl_start = ADDR (.twl))
                0x02032ec0                        PROVIDE (__twl_end = (ADDR (.twl.rw) + SIZEOF (.twl.rw)))

.twl.bss        0x02032ec0        0x0 load address 0x02400000
 *(.twl_bss .twl_bss.*)
 *.twl.*(.dynbss)
 *.twl.*(.bss .bss.* .gnu.linkonce.b.*)
 *.twl.*(COMMON)
                0x02032ec0                        . = ALIGN (0x4)
                [!provide]                        PROVIDE (__twl_bss_start = ADDR (.twl.bss))
                0x02032ec0                        PROVIDE (__twl_bss_end = (ADDR (.twl.bss) + SIZEOF (.twl.bss)))
                0x02032ec0                        . = .
                0x02032ec0                        PROVIDE (__heap_start_twl = .)

.loadlist       0x0e000998       0x30 load address 0x020256a4
                0x0e000998        0x4 LONG 0x1ff8000 __itcm_start
                0x0e00099c        0x4 LONG 0x1ff88dc __itcm_end
                0x0e0009a0        0x4 LONG 0x1ff88dc __itcm_end
                0x0e0009a4        0x4 LONG 0x2ff0000 __dtcm_start
                0x0e0009a8        0x4 LONG 0x2ff0000 __dtcm_end
                0x0e0009ac        0x4 LONG 0x2ff00a0 __dtcm_bss_end
                0x0e0009b0        0x4 LONG 0x20013c0 __main_start
                0x0e0009b4        0x4 LONG 0x2021430 __main_end
                0x0e0009b8        0x4 LONG 0x2021430 __main_end
                0x0e0009bc        0x4 LONG 0x2021430 __tls_start
                0x0e0009c0        0x4 LONG 0x2021430 __tls_end
                0x0e0009c4        0x4 LONG 0x2032eb4 __main_bss_end
                0x02004d58                        PROVIDE (__loadlist_lma = __itcm_lma)
                0x020256a4                        PROVIDE (__loadlist_start = LOADADDR (.loadlist))
                0x020256d4                        PROVIDE (__loadlist_end = (LOADADDR (.loadlist) + SIZEOF (.loadlist)))

.twl.loadlist   0x0e0009c8        0xc load address 0x02400000
                0x0e0009c8        0x4 LONG 0x2032ec0 __twl_start
                0x0e0009cc        0x4 LONG 0x2032ec0 __twl_end
                0x0e0009d0        0x4 LONG 0x2032ec0 __twl_bss_end
                0x02400000                        PROVIDE (__twl_loadlist_lma = __twl_lma)
                0x02400000                        PROVIDE (__twl_loadlist_start = LOADADDR (.twl.loadlist))
                0x0240000c                        PROVIDE (__twl_loadlist_end = (LOADADDR (.twl.loadlist) + SIZEOF (.twl.loadlist)))

.rel.dyn        0x0e0009d4        0x0 load address 0x0240000c
 .rel.iplt      0x0e0009d4        0x0 C:/devkitPro/devkitARM/bin/../lib/gcc/arm-none-eabi/15.2.0/thumb/crtbegin.o

.stab
 *(.stab)

.stabstr
 *(.stabstr)

.stab.excl
 *(.stab.excl)

.stab.exclstr
 *(.stab.exclstr)

.stab.index
 *(.stab.index)

.stab.indexstr
 *(.stab.indexstr)

.comment        0x00000000       0x5e
 *(.comment)
 .comment       0x00000000       0x5e C:/devkitPro/devkitARM/bin/../lib/gcc/arm-none-eabi/15.2.0/thumb/crtbegin.o
                                 0x19 (size before relaxing)
 .comment       0x0000005e        0x0 main.o
                                 0x19 (size before relaxing)
 .comment       0x0000005e        0x0 C:/devkitPro/libnds/lib\libdswifi9.a(dswifi9.o)
                                 0x24 (size before relaxing)
 .comment       0x0000005e        0x0 C:/devkitPro/libnds/lib\libdswifi9.a(sgIP_DHCP.o)
                                 0x24 (size before relaxing)
 .comment       0x0000005e        0x0 C:/devkitPro/libnds/lib\libdswifi9.a(sgIP_DNS.o)
                                 0x24 (size before relaxing)
 .comment       0x0000005e        0x0 C:/devkitPro/libnds/lib\libdswifi9.a(sgIP_sockets.o)
                                 0x24 (size before relaxing)
 .comment       0x0000005e        0x0 C:/devkitPro/libnds/lib\libdswifi9.a(wfc.o)
                                 0x24 (size before relaxing)
 .comment       0x0000005e        0x0 C:/devkitPro/libnds/lib\libdswifi9.a(sgIP.o)
                                 0x24 (size before relaxing)
 .comment       0x0000005e        0x0 C:/devkitPro/libnds/lib\libdswifi9.a(sgIP_memblock.o)
                                 0x24 (size before relaxing)
 .comment       0x0000005e        0x0 C:/devkitPro/libnds/lib\libdswifi9.a(sgIP_Hub.o)
                                 0x24 (size before relaxing)
 .comment       0x0000005e        0x0 C:/devkitPro/libnds/lib\libdswifi9.a(sgIP_IP.o)
                                 0x24 (size before relaxing)
 .comment       0x0000005e        0x0 C:/devkitPro/libnds/lib\libdswifi9.a(sgIP_ARP.o)
                                 0x24 (size before relaxing)
 .comment       0x0000005e        0x0 C:/devkitPro/libnds/lib\libdswifi9.a(sgIP_ICMP.o)
                                 0x24 (size before relaxing)
 .comment       0x0000005e        0x0 C:/devkitPro/libnds/lib\libdswifi9.a(sgIP_TCP.o)
                                 0x24 (size before relaxing)
 .comment       0x0000005e        0x0 C:/devkitPro/libnds/lib\libdswifi9.a(sgIP_UDP.o)
                                 0x24 (size before relaxing)
 .comment       0x0000005e        0x0 C:/devkitPro/libnds/lib\libnds9.a(console.o)
                                 0x24 (size before relaxing)
 .comment       0x0000005e        0x0 C:/devkitPro/libnds/lib\libnds9.a(keys.o)
                                 0x24 (size before relaxing)
 .comment       0x0000005e        0x0 C:/devkitPro/libnds/lib\libnds9.a(background.o)
                                 0x24 (size before relaxing)
 .comment       0x0000005e        0x0 C:/devkitPro/libnds/lib\libnds9.a(trig.o)
                                 0x24 (size before relaxing)
 .comment       0x0000005e        0x0 C:/devkitPro/calico/lib\libcalico_ds9.a(irq.o)
                                 0x24 (size before relaxing)
 .comment       0x0000005e        0x0 C:/devkitPro/calico/lib\libcalico_ds9.a(tick.o)
                                 0x24 (size before relaxing)
 .comment       0x0000005e        0x0 C:/devkitPro/calico/lib\libcalico_ds9.a(thread_cold.o)
                                 0x24 (size before relaxing)
 .comment       0x0000005e        0x0 C:/devkitPro/calico/lib\libcalico_ds9.a(thread_hot.32.o)
                                 0x24 (size before relaxing)
 .comment       0x0000005e        0x0 C:/devkitPro/calico/lib\libcalico_ds9.a(mutex.o)
                                 0x24 (size before relaxing)
 .comment       0x0000005e        0x0 C:/devkitPro/calico/lib\libcalico_ds9.a(mailbox.o)
                                 0x24 (size before relaxing)
 .comment       0x0000005e        0x0 C:/devkitPro/calico/lib\libcalico_ds9.a(newlib_syscalls.o)
                                 0x24 (size before relaxing)
 .comment       0x0000005e        0x0 C:/devkitPro/calico/lib\libcalico_ds9.a(arm-shims.32.o)
                                 0x24 (size before relaxing)
 .comment       0x0000005e        0x0 C:/devkitPro/calico/lib\libcalico_ds9.a(startup.crt0.o)
                                 0x24 (size before relaxing)
 .comment       0x0000005e        0x0 C:/devkitPro/calico/lib\libcalico_ds9.a(pxi.o)
                                 0x24 (size before relaxing)
 .comment       0x0000005e        0x0 C:/devkitPro/calico/lib\libcalico_ds9.a(keypad.o)
                                 0x24 (size before relaxing)
 .comment       0x0000005e        0x0 C:/devkitPro/calico/lib\libcalico_ds9.a(netbuf.o)
                                 0x24 (size before relaxing)
 .comment       0x0000005e        0x0 C:/devkitPro/calico/lib\libcalico_ds9.a(sys_startup.o)
                                 0x24 (size before relaxing)
 .comment       0x0000005e        0x0 C:/devkitPro/calico/lib\libcalico_ds9.a(pm_arm9.o)
                                 0x24 (size before relaxing)
 .comment       0x0000005e        0x0 C:/devkitPro/calico/lib\libcalico_ds9.a(touch.o)
                                 0x24 (size before relaxing)
 .comment       0x0000005e        0x0 C:/devkitPro/calico/lib\libcalico_ds9.a(wlmgr.o)
                                 0x24 (size before relaxing)
 .comment       0x0000005e        0x0 C:/devkitPro/calico/lib\libcalico_ds9.a(smutex.32.o)
                                 0x24 (size before relaxing)
 .comment       0x0000005e        0x0 C:/devkitPro/calico/lib\libcalico_ds9.a(pm.o)
                                 0x24 (size before relaxing)
 .comment       0x0000005e        0x0 C:/devkitPro/devkitARM/bin/../lib/gcc/arm-none-eabi/15.2.0/thumb\libgcc.a(_udivmoddi4.o)
                                 0x19 (size before relaxing)
 .comment       0x0000005e        0x0 C:/devkitPro/devkitARM/bin/../lib/gcc/arm-none-eabi/15.2.0/thumb\libgcc.a(_muldi3.o)
                                 0x19 (size before relaxing)
 .comment       0x0000005e        0x0 C:/devkitPro/devkitARM/bin/../lib/gcc/arm-none-eabi/15.2.0/thumb\libgcc.a(_fixdfdi.o)
                                 0x19 (size before relaxing)
 .comment       0x0000005e        0x0 C:/devkitPro/devkitARM/bin/../lib/gcc/arm-none-eabi/15.2.0/thumb\libgcc.a(_fixunsdfdi.o)
                                 0x19 (size before relaxing)
 .comment       0x0000005e        0x0 C:/devkitPro/devkitARM/bin/../lib/gcc/arm-none-eabi/15.2.0/thumb/crtend.o
                                 0x19 (size before relaxing)

.gnu.build.attributes
 *(.gnu.build.attributes .gnu.build.attributes.*)

.debug
 *(.debug)

.line
 *(.line)

.debug_srcinfo
 *(.debug_srcinfo)

.debug_sfnames
 *(.debug_sfnames)

.debug_aranges  0x00000000     0x11a0
 *(.debug_aranges)
 .debug_aranges
                0x00000000       0x28 main.o
 .debug_aranges
                0x00000028       0x48 C:/devkitPro/libnds/lib\libdswifi9.a(dswifi9.o)
 .debug_aranges
                0x00000070       0x78 C:/devkitPro/libnds/lib\libdswifi9.a(sgIP_DHCP.o)
 .debug_aranges
                0x000000e8       0x78 C:/devkitPro/libnds/lib\libdswifi9.a(sgIP_DNS.o)
 .debug_aranges
                0x00000160       0xd0 C:/devkitPro/libnds/lib\libdswifi9.a(sgIP_sockets.o)
 .debug_aranges
                0x00000230       0xd0 C:/devkitPro/libnds/lib\libdswifi9.a(wfc.o)
 .debug_aranges
                0x00000300       0x28 C:/devkitPro/libnds/lib\libdswifi9.a(sgIP.o)
 .debug_aranges
                0x00000328       0x68 C:/devkitPro/libnds/lib\libdswifi9.a(sgIP_memblock.o)
 .debug_aranges
                0x00000390       0x70 C:/devkitPro/libnds/lib\libdswifi9.a(sgIP_Hub.o)
 .debug_aranges
                0x00000400       0x40 C:/devkitPro/libnds/lib\libdswifi9.a(sgIP_IP.o)
 .debug_aranges
                0x00000440       0x80 C:/devkitPro/libnds/lib\libdswifi9.a(sgIP_ARP.o)
 .debug_aranges
                0x000004c0       0x28 C:/devkitPro/libnds/lib\libdswifi9.a(sgIP_ICMP.o)
 .debug_aranges
                0x000004e8       0xb8 C:/devkitPro/libnds/lib\libdswifi9.a(sgIP_TCP.o)
 .debug_aranges
                0x000005a0       0x68 C:/devkitPro/libnds/lib\libdswifi9.a(sgIP_UDP.o)
 .debug_aranges
                0x00000608       0x80 C:/devkitPro/libnds/lib\libnds9.a(console.o)
 .debug_aranges
                0x00000688       0x50 C:/devkitPro/libnds/lib\libnds9.a(keys.o)
 .debug_aranges
                0x000006d8       0x40 C:/devkitPro/libnds/lib\libnds9.a(background.o)
 .debug_aranges
                0x00000718       0x60 C:/devkitPro/libnds/lib\libnds9.a(trig.o)
 .debug_aranges
                0x00000778       0x20 C:/devkitPro/calico/lib\libcalico_ds9.a(irq.o)
 .debug_aranges
                0x00000798       0x50 C:/devkitPro/calico/lib\libcalico_ds9.a(tick.o)
 .debug_aranges
                0x000007e8       0x88 C:/devkitPro/calico/lib\libcalico_ds9.a(thread_cold.o)
 .debug_aranges
                0x00000870       0x50 C:/devkitPro/calico/lib\libcalico_ds9.a(thread_hot.32.o)
 .debug_aranges
                0x000008c0       0x50 C:/devkitPro/calico/lib\libcalico_ds9.a(mutex.o)
 .debug_aranges
                0x00000910       0x30 C:/devkitPro/calico/lib\libcalico_ds9.a(mailbox.o)
 .debug_aranges
                0x00000940       0xa8 C:/devkitPro/calico/lib\libcalico_ds9.a(newlib_syscalls.o)
 .debug_aranges
                0x000009e8       0x28 C:/devkitPro/calico/lib\libcalico_ds9.a(arm-copy-fill.32.o)
 .debug_aranges
                0x00000a10       0x28 C:/devkitPro/calico/lib\libcalico_ds9.a(arm-context.32.o)
 .debug_aranges
                0x00000a38       0x70 C:/devkitPro/calico/lib\libcalico_ds9.a(arm-shims.32.o)
 .debug_aranges
                0x00000aa8       0x28 C:/devkitPro/calico/lib\libcalico_ds9.a(startup.crt0.o)
 .debug_aranges
                0x00000ad0       0x28 C:/devkitPro/calico/lib\libcalico_ds9.a(utils.crt0.o)
 .debug_aranges
                0x00000af8       0x90 C:/devkitPro/calico/lib\libcalico_ds9.a(bios.o)
 .debug_aranges
                0x00000b88       0x78 C:/devkitPro/calico/lib\libcalico_ds9.a(pxi.o)
 .debug_aranges
                0x00000c00       0x20 C:/devkitPro/calico/lib\libcalico_ds9.a(keypad.o)
 .debug_aranges
                0x00000c20       0x40 C:/devkitPro/calico/lib\libcalico_ds9.a(netbuf.o)
 .debug_aranges
                0x00000c60       0x38 C:/devkitPro/calico/lib\libcalico_ds9.a(bootstub_arm9.o)
 .debug_aranges
                0x00000c98       0x20 C:/devkitPro/calico/lib\libcalico_ds9.a(mpu_setup.crt0.o)
 .debug_aranges
                0x00000cb8       0x28 C:/devkitPro/calico/lib\libcalico_ds9.a(sys_startup.o)
 .debug_aranges
                0x00000ce0       0x20 C:/devkitPro/calico/lib\libcalico_ds9.a(excpt_handler.32.o)
 .debug_aranges
                0x00000d00       0x40 C:/devkitPro/calico/lib\libcalico_ds9.a(pm_arm9.o)
 .debug_aranges
                0x00000d40       0x20 C:/devkitPro/calico/lib\libcalico_ds9.a(touch.o)
 .debug_aranges
                0x00000d60       0x88 C:/devkitPro/calico/lib\libcalico_ds9.a(wlmgr.o)
 .debug_aranges
                0x00000de8       0x48 C:/devkitPro/calico/lib\libcalico_ds9.a(arm-cache.32.o)
 .debug_aranges
                0x00000e30       0x20 C:/devkitPro/calico/lib\libcalico_ds9.a(irq_handler.32.o)
 .debug_aranges
                0x00000e50       0x30 C:/devkitPro/calico/lib\libcalico_ds9.a(smutex.32.o)
 .debug_aranges
                0x00000e80       0xa0 C:/devkitPro/calico/lib\libcalico_ds9.a(pm.o)
 .debug_aranges
                0x00000f20       0x20 C:/devkitPro/devkitARM/bin/../lib/gcc/arm-none-eabi/15.2.0/thumb\libgcc.a(_divsi3.o)
 .debug_aranges
                0x00000f40       0x20 C:/devkitPro/devkitARM/bin/../lib/gcc/arm-none-eabi/15.2.0/thumb\libgcc.a(_dvmd_tls.o)
 .debug_aranges
                0x00000f60       0x20 C:/devkitPro/devkitARM/bin/../lib/gcc/arm-none-eabi/15.2.0/thumb\libgcc.a(_arm_cmpsf2.o)
 .debug_aranges
                0x00000f80       0x20 C:/devkitPro/devkitARM/bin/../lib/gcc/arm-none-eabi/15.2.0/thumb\libgcc.a(_aeabi_uldivmod.o)
 .debug_aranges
                0x00000fa0       0x20 C:/devkitPro/devkitARM/bin/../lib/gcc/arm-none-eabi/15.2.0/thumb\libgcc.a(_udivmoddi4.o)
 .debug_aranges
                0x00000fc0       0x20 C:/devkitPro/devkitARM/bin/../lib/gcc/arm-none-eabi/15.2.0/thumb\libgcc.a(_clzdi2.o)
 .debug_aranges
                0x00000fe0       0x20 C:/devkitPro/devkitARM/bin/../lib/gcc/arm-none-eabi/15.2.0/thumb\libgcc.a(_clzsi2.o)
 .debug_aranges
                0x00001000       0x20 C:/devkitPro/devkitARM/bin/../lib/gcc/arm-none-eabi/15.2.0/thumb\libgcc.a(_thumb1_case_uqi.o)
 .debug_aranges
                0x00001020       0x20 C:/devkitPro/devkitARM/bin/../lib/gcc/arm-none-eabi/15.2.0/thumb\libgcc.a(_thumb1_case_uhi.o)
 .debug_aranges
                0x00001040       0x20 C:/devkitPro/devkitARM/bin/../lib/gcc/arm-none-eabi/15.2.0/thumb\libgcc.a(_udivsi3.o)
 .debug_aranges
                0x00001060       0x20 C:/devkitPro/devkitARM/bin/../lib/gcc/arm-none-eabi/15.2.0/thumb\libgcc.a(_arm_addsubdf3.o)
 .debug_aranges
                0x00001080       0x20 C:/devkitPro/devkitARM/bin/../lib/gcc/arm-none-eabi/15.2.0/thumb\libgcc.a(_arm_muldivdf3.o)
 .debug_aranges
                0x000010a0       0x20 C:/devkitPro/devkitARM/bin/../lib/gcc/arm-none-eabi/15.2.0/thumb\libgcc.a(_arm_cmpdf2.o)
 .debug_aranges
                0x000010c0       0x20 C:/devkitPro/devkitARM/bin/../lib/gcc/arm-none-eabi/15.2.0/thumb\libgcc.a(_arm_unorddf2.o)
 .debug_aranges
                0x000010e0       0x20 C:/devkitPro/devkitARM/bin/../lib/gcc/arm-none-eabi/15.2.0/thumb\libgcc.a(_arm_fixdfsi.o)
 .debug_aranges
                0x00001100       0x20 C:/devkitPro/devkitARM/bin/../lib/gcc/arm-none-eabi/15.2.0/thumb\libgcc.a(_arm_fixunsdfsi.o)
 .debug_aranges
                0x00001120       0x20 C:/devkitPro/devkitARM/bin/../lib/gcc/arm-none-eabi/15.2.0/thumb\libgcc.a(_arm_truncdfsf2.o)
 .debug_aranges
                0x00001140       0x20 C:/devkitPro/devkitARM/bin/../lib/gcc/arm-none-eabi/15.2.0/thumb\libgcc.a(_muldi3.o)
 .debug_aranges
                0x00001160       0x20 C:/devkitPro/devkitARM/bin/../lib/gcc/arm-none-eabi/15.2.0/thumb\libgcc.a(_fixdfdi.o)
 .debug_aranges
                0x00001180       0x20 C:/devkitPro/devkitARM/bin/../lib/gcc/arm-none-eabi/15.2.0/thumb\libgcc.a(_fixunsdfdi.o)

.debug_pubnames
 *(.debug_pubnames)

.debug_info     0x00000000    0x23465
 *(.debug_info .gnu.linkonce.wi.*)
 .debug_info    0x00000000     0x1aa3 main.o
 .debug_info    0x00001aa3      0x4d9 C:/devkitPro/libnds/lib\libdswifi9.a(dswifi9.o)
 .debug_info    0x00001f7c      0xe70 C:/devkitPro/libnds/lib\libdswifi9.a(sgIP_DHCP.o)
 .debug_info    0x00002dec     0x15ca C:/devkitPro/libnds/lib\libdswifi9.a(sgIP_DNS.o)
 .debug_info    0x000043b6     0x2b52 C:/devkitPro/libnds/lib\libdswifi9.a(sgIP_sockets.o)
 .debug_info    0x00006f08     0x29da C:/devkitPro/libnds/lib\libdswifi9.a(wfc.o)
 .debug_info    0x000098e2      0x5a0 C:/devkitPro/libnds/lib\libdswifi9.a(sgIP.o)
 .debug_info    0x00009e82      0x99a C:/devkitPro/libnds/lib\libdswifi9.a(sgIP_memblock.o)
 .debug_info    0x0000a81c      0x72a C:/devkitPro/libnds/lib\libdswifi9.a(sgIP_Hub.o)
 .debug_info    0x0000af46      0x624 C:/devkitPro/libnds/lib\libdswifi9.a(sgIP_IP.o)
 .debug_info    0x0000b56a      0xbb3 C:/devkitPro/libnds/lib\libdswifi9.a(sgIP_ARP.o)
 .debug_info    0x0000c11d      0x28b C:/devkitPro/libnds/lib\libdswifi9.a(sgIP_ICMP.o)
 .debug_info    0x0000c3a8     0x22d0 C:/devkitPro/libnds/lib\libdswifi9.a(sgIP_TCP.o)
 .debug_info    0x0000e678     0x10d4 C:/devkitPro/libnds/lib\libdswifi9.a(sgIP_UDP.o)
 .debug_info    0x0000f74c     0x2a7a C:/devkitPro/libnds/lib\libnds9.a(console.o)
 .debug_info    0x000121c6      0x48d C:/devkitPro/libnds/lib\libnds9.a(keys.o)
 .debug_info    0x00012653      0xa36 C:/devkitPro/libnds/lib\libnds9.a(background.o)
 .debug_info    0x00013089      0x77c C:/devkitPro/libnds/lib\libnds9.a(trig.o)
 .debug_info    0x00013805      0x28e C:/devkitPro/calico/lib\libcalico_ds9.a(irq.o)
 .debug_info    0x00013a93      0xc64 C:/devkitPro/calico/lib\libcalico_ds9.a(tick.o)
 .debug_info    0x000146f7     0x1e51 C:/devkitPro/calico/lib\libcalico_ds9.a(thread_cold.o)
 .debug_info    0x00016548     0x126f C:/devkitPro/calico/lib\libcalico_ds9.a(thread_hot.32.o)
 .debug_info    0x000177b7     0x1070 C:/devkitPro/calico/lib\libcalico_ds9.a(mutex.o)
 .debug_info    0x00018827      0x80d C:/devkitPro/calico/lib\libcalico_ds9.a(mailbox.o)
 .debug_info    0x00019034     0x161d C:/devkitPro/calico/lib\libcalico_ds9.a(newlib_syscalls.o)
 .debug_info    0x0001a651       0x3b C:/devkitPro/calico/lib\libcalico_ds9.a(arm-copy-fill.32.o)
 .debug_info    0x0001a68c       0x3b C:/devkitPro/calico/lib\libcalico_ds9.a(arm-context.32.o)
 .debug_info    0x0001a6c7      0x385 C:/devkitPro/calico/lib\libcalico_ds9.a(arm-shims.32.o)
 .debug_info    0x0001aa4c      0x4e1 C:/devkitPro/calico/lib\libcalico_ds9.a(startup.crt0.o)
 .debug_info    0x0001af2d       0x3b C:/devkitPro/calico/lib\libcalico_ds9.a(utils.crt0.o)
 .debug_info    0x0001af68       0xd9 C:/devkitPro/calico/lib\libcalico_ds9.a(bios.o)
 .debug_info    0x0001b041     0x13cf C:/devkitPro/calico/lib\libcalico_ds9.a(pxi.o)
 .debug_info    0x0001c410      0x1c6 C:/devkitPro/calico/lib\libcalico_ds9.a(keypad.o)
 .debug_info    0x0001c5d6      0xa00 C:/devkitPro/calico/lib\libcalico_ds9.a(netbuf.o)
 .debug_info    0x0001cfd6       0x3e C:/devkitPro/calico/lib\libcalico_ds9.a(bootstub_arm9.o)
 .debug_info    0x0001d014       0x33 C:/devkitPro/calico/lib\libcalico_ds9.a(mpu_setup.crt0.o)
 .debug_info    0x0001d047      0x4fc C:/devkitPro/calico/lib\libcalico_ds9.a(sys_startup.o)
 .debug_info    0x0001d543       0x5d C:/devkitPro/calico/lib\libcalico_ds9.a(excpt_handler.32.o)
 .debug_info    0x0001d5a0      0x98f C:/devkitPro/calico/lib\libcalico_ds9.a(pm_arm9.o)
 .debug_info    0x0001df2f      0x26f C:/devkitPro/calico/lib\libcalico_ds9.a(touch.o)
 .debug_info    0x0001e19e     0x1942 C:/devkitPro/calico/lib\libcalico_ds9.a(wlmgr.o)
 .debug_info    0x0001fae0       0x67 C:/devkitPro/calico/lib\libcalico_ds9.a(arm-cache.32.o)
 .debug_info    0x0001fb47       0x33 C:/devkitPro/calico/lib\libcalico_ds9.a(irq_handler.32.o)
 .debug_info    0x0001fb7a      0x99e C:/devkitPro/calico/lib\libcalico_ds9.a(smutex.32.o)
 .debug_info    0x00020518     0x1b21 C:/devkitPro/calico/lib\libcalico_ds9.a(pm.o)
 .debug_info    0x00022039       0x3e C:/devkitPro/devkitARM/bin/../lib/gcc/arm-none-eabi/15.2.0/thumb\libgcc.a(_divsi3.o)
 .debug_info    0x00022077       0x3c C:/devkitPro/devkitARM/bin/../lib/gcc/arm-none-eabi/15.2.0/thumb\libgcc.a(_dvmd_tls.o)
 .debug_info    0x000220b3       0xdb C:/devkitPro/devkitARM/bin/../lib/gcc/arm-none-eabi/15.2.0/thumb\libgcc.a(_arm_cmpsf2.o)
 .debug_info    0x0002218e       0x24 C:/devkitPro/devkitARM/bin/../lib/gcc/arm-none-eabi/15.2.0/thumb\libgcc.a(_aeabi_uldivmod.o)
 .debug_info    0x000221b2      0x3b6 C:/devkitPro/devkitARM/bin/../lib/gcc/arm-none-eabi/15.2.0/thumb\libgcc.a(_udivmoddi4.o)
 .debug_info    0x00022568       0x31 C:/devkitPro/devkitARM/bin/../lib/gcc/arm-none-eabi/15.2.0/thumb\libgcc.a(_clzdi2.o)
 .debug_info    0x00022599       0x31 C:/devkitPro/devkitARM/bin/../lib/gcc/arm-none-eabi/15.2.0/thumb\libgcc.a(_clzsi2.o)
 .debug_info    0x000225ca       0x31 C:/devkitPro/devkitARM/bin/../lib/gcc/arm-none-eabi/15.2.0/thumb\libgcc.a(_thumb1_case_uqi.o)
 .debug_info    0x000225fb       0x31 C:/devkitPro/devkitARM/bin/../lib/gcc/arm-none-eabi/15.2.0/thumb\libgcc.a(_thumb1_case_uhi.o)
 .debug_info    0x0002262c       0x3e C:/devkitPro/devkitARM/bin/../lib/gcc/arm-none-eabi/15.2.0/thumb\libgcc.a(_udivsi3.o)
 .debug_info    0x0002266a       0xd3 C:/devkitPro/devkitARM/bin/../lib/gcc/arm-none-eabi/15.2.0/thumb\libgcc.a(_arm_addsubdf3.o)
 .debug_info    0x0002273d       0x57 C:/devkitPro/devkitARM/bin/../lib/gcc/arm-none-eabi/15.2.0/thumb\libgcc.a(_arm_muldivdf3.o)
 .debug_info    0x00022794       0xe2 C:/devkitPro/devkitARM/bin/../lib/gcc/arm-none-eabi/15.2.0/thumb\libgcc.a(_arm_cmpdf2.o)
 .debug_info    0x00022876       0x3c C:/devkitPro/devkitARM/bin/../lib/gcc/arm-none-eabi/15.2.0/thumb\libgcc.a(_arm_unorddf2.o)
 .debug_info    0x000228b2       0x3c C:/devkitPro/devkitARM/bin/../lib/gcc/arm-none-eabi/15.2.0/thumb\libgcc.a(_arm_fixdfsi.o)
 .debug_info    0x000228ee       0x3c C:/devkitPro/devkitARM/bin/../lib/gcc/arm-none-eabi/15.2.0/thumb\libgcc.a(_arm_fixunsdfsi.o)
 .debug_info    0x0002292a       0x3f C:/devkitPro/devkitARM/bin/../lib/gcc/arm-none-eabi/15.2.0/thumb\libgcc.a(_arm_truncdfsf2.o)
 .debug_info    0x00022969      0x433 C:/devkitPro/devkitARM/bin/../lib/gcc/arm-none-eabi/15.2.0/thumb\libgcc.a(_muldi3.o)
 .debug_info    0x00022d9c      0x342 C:/devkitPro/devkitARM/bin/../lib/gcc/arm-none-eabi/15.2.0/thumb\libgcc.a(_fixdfdi.o)
 .debug_info    0x000230de      0x387 C:/devkitPro/devkitARM/bin/../lib/gcc/arm-none-eabi/15.2.0/thumb\libgcc.a(_fixunsdfdi.o)

.debug_abbrev   0x00000000     0x832f
 *(.debug_abbrev)
 .debug_abbrev  0x00000000      0x45f main.o
 .debug_abbrev  0x0000045f      0x25d C:/devkitPro/libnds/lib\libdswifi9.a(dswifi9.o)
 .debug_abbrev  0x000006bc      0x3e8 C:/devkitPro/libnds/lib\libdswifi9.a(sgIP_DHCP.o)
 .debug_abbrev  0x00000aa4      0x4d0 C:/devkitPro/libnds/lib\libdswifi9.a(sgIP_DNS.o)
 .debug_abbrev  0x00000f74      0x45f C:/devkitPro/libnds/lib\libdswifi9.a(sgIP_sockets.o)
 .debug_abbrev  0x000013d3      0x6fc C:/devkitPro/libnds/lib\libdswifi9.a(wfc.o)
 .debug_abbrev  0x00001acf      0x1fe C:/devkitPro/libnds/lib\libdswifi9.a(sgIP.o)
 .debug_abbrev  0x00001ccd      0x3b2 C:/devkitPro/libnds/lib\libdswifi9.a(sgIP_memblock.o)
 .debug_abbrev  0x0000207f      0x261 C:/devkitPro/libnds/lib\libdswifi9.a(sgIP_Hub.o)
 .debug_abbrev  0x000022e0      0x20e C:/devkitPro/libnds/lib\libdswifi9.a(sgIP_IP.o)
 .debug_abbrev  0x000024ee      0x36b C:/devkitPro/libnds/lib\libdswifi9.a(sgIP_ARP.o)
 .debug_abbrev  0x00002859      0x15a C:/devkitPro/libnds/lib\libdswifi9.a(sgIP_ICMP.o)
 .debug_abbrev  0x000029b3      0x53a C:/devkitPro/libnds/lib\libdswifi9.a(sgIP_TCP.o)
 .debug_abbrev  0x00002eed      0x37d C:/devkitPro/libnds/lib\libdswifi9.a(sgIP_UDP.o)
 .debug_abbrev  0x0000326a      0x62f C:/devkitPro/libnds/lib\libnds9.a(console.o)
 .debug_abbrev  0x00003899      0x273 C:/devkitPro/libnds/lib\libnds9.a(keys.o)
 .debug_abbrev  0x00003b0c      0x364 C:/devkitPro/libnds/lib\libnds9.a(background.o)
 .debug_abbrev  0x00003e70      0x26c C:/devkitPro/libnds/lib\libnds9.a(trig.o)
 .debug_abbrev  0x000040dc      0x1c1 C:/devkitPro/calico/lib\libcalico_ds9.a(irq.o)
 .debug_abbrev  0x0000429d      0x329 C:/devkitPro/calico/lib\libcalico_ds9.a(tick.o)
 .debug_abbrev  0x000045c6      0x592 C:/devkitPro/calico/lib\libcalico_ds9.a(thread_cold.o)
 .debug_abbrev  0x00004b58      0x36d C:/devkitPro/calico/lib\libcalico_ds9.a(thread_hot.32.o)
 .debug_abbrev  0x00004ec5      0x3c9 C:/devkitPro/calico/lib\libcalico_ds9.a(mutex.o)
 .debug_abbrev  0x0000528e      0x2af C:/devkitPro/calico/lib\libcalico_ds9.a(mailbox.o)
 .debug_abbrev  0x0000553d      0x4a2 C:/devkitPro/calico/lib\libcalico_ds9.a(newlib_syscalls.o)
 .debug_abbrev  0x000059df       0x26 C:/devkitPro/calico/lib\libcalico_ds9.a(arm-copy-fill.32.o)
 .debug_abbrev  0x00005a05       0x26 C:/devkitPro/calico/lib\libcalico_ds9.a(arm-context.32.o)
 .debug_abbrev  0x00005a2b      0x1c3 C:/devkitPro/calico/lib\libcalico_ds9.a(arm-shims.32.o)
 .debug_abbrev  0x00005bee      0x1d6 C:/devkitPro/calico/lib\libcalico_ds9.a(startup.crt0.o)
 .debug_abbrev  0x00005dc4       0x26 C:/devkitPro/calico/lib\libcalico_ds9.a(utils.crt0.o)
 .debug_abbrev  0x00005dea       0x26 C:/devkitPro/calico/lib\libcalico_ds9.a(bios.o)
 .debug_abbrev  0x00005e10      0x446 C:/devkitPro/calico/lib\libcalico_ds9.a(pxi.o)
 .debug_abbrev  0x00006256       0xd0 C:/devkitPro/calico/lib\libcalico_ds9.a(keypad.o)
 .debug_abbrev  0x00006326      0x323 C:/devkitPro/calico/lib\libcalico_ds9.a(netbuf.o)
 .debug_abbrev  0x00006649       0x26 C:/devkitPro/calico/lib\libcalico_ds9.a(bootstub_arm9.o)
 .debug_abbrev  0x0000666f       0x28 C:/devkitPro/calico/lib\libcalico_ds9.a(mpu_setup.crt0.o)
 .debug_abbrev  0x00006697      0x1e7 C:/devkitPro/calico/lib\libcalico_ds9.a(sys_startup.o)
 .debug_abbrev  0x0000687e       0x26 C:/devkitPro/calico/lib\libcalico_ds9.a(excpt_handler.32.o)
 .debug_abbrev  0x000068a4      0x264 C:/devkitPro/calico/lib\libcalico_ds9.a(pm_arm9.o)
 .debug_abbrev  0x00006b08      0x11a C:/devkitPro/calico/lib\libcalico_ds9.a(touch.o)
 .debug_abbrev  0x00006c22      0x5e7 C:/devkitPro/calico/lib\libcalico_ds9.a(wlmgr.o)
 .debug_abbrev  0x00007209       0x26 C:/devkitPro/calico/lib\libcalico_ds9.a(arm-cache.32.o)
 .debug_abbrev  0x0000722f       0x28 C:/devkitPro/calico/lib\libcalico_ds9.a(irq_handler.32.o)
 .debug_abbrev  0x00007257      0x341 C:/devkitPro/calico/lib\libcalico_ds9.a(smutex.32.o)
 .debug_abbrev  0x00007598      0x693 C:/devkitPro/calico/lib\libcalico_ds9.a(pm.o)
 .debug_abbrev  0x00007c2b       0x28 C:/devkitPro/devkitARM/bin/../lib/gcc/arm-none-eabi/15.2.0/thumb\libgcc.a(_divsi3.o)
 .debug_abbrev  0x00007c53       0x26 C:/devkitPro/devkitARM/bin/../lib/gcc/arm-none-eabi/15.2.0/thumb\libgcc.a(_dvmd_tls.o)
 .debug_abbrev  0x00007c79       0x28 C:/devkitPro/devkitARM/bin/../lib/gcc/arm-none-eabi/15.2.0/thumb\libgcc.a(_arm_cmpsf2.o)
 .debug_abbrev  0x00007ca1       0x14 C:/devkitPro/devkitARM/bin/../lib/gcc/arm-none-eabi/15.2.0/thumb\libgcc.a(_aeabi_uldivmod.o)
 .debug_abbrev  0x00007cb5      0x126 C:/devkitPro/devkitARM/bin/../lib/gcc/arm-none-eabi/15.2.0/thumb\libgcc.a(_udivmoddi4.o)
 .debug_abbrev  0x00007ddb       0x28 C:/devkitPro/devkitARM/bin/../lib/gcc/arm-none-eabi/15.2.0/thumb\libgcc.a(_clzdi2.o)
 .debug_abbrev  0x00007e03       0x28 C:/devkitPro/devkitARM/bin/../lib/gcc/arm-none-eabi/15.2.0/thumb\libgcc.a(_clzsi2.o)
 .debug_abbrev  0x00007e2b       0x28 C:/devkitPro/devkitARM/bin/../lib/gcc/arm-none-eabi/15.2.0/thumb\libgcc.a(_thumb1_case_uqi.o)
 .debug_abbrev  0x00007e53       0x28 C:/devkitPro/devkitARM/bin/../lib/gcc/arm-none-eabi/15.2.0/thumb\libgcc.a(_thumb1_case_uhi.o)
 .debug_abbrev  0x00007e7b       0x28 C:/devkitPro/devkitARM/bin/../lib/gcc/arm-none-eabi/15.2.0/thumb\libgcc.a(_udivsi3.o)
 .debug_abbrev  0x00007ea3       0x28 C:/devkitPro/devkitARM/bin/../lib/gcc/arm-none-eabi/15.2.0/thumb\libgcc.a(_arm_addsubdf3.o)
 .debug_abbrev  0x00007ecb       0x28 C:/devkitPro/devkitARM/bin/../lib/gcc/arm-none-eabi/15.2.0/thumb\libgcc.a(_arm_muldivdf3.o)
 .debug_abbrev  0x00007ef3       0x28 C:/devkitPro/devkitARM/bin/../lib/gcc/arm-none-eabi/15.2.0/thumb\libgcc.a(_arm_cmpdf2.o)
 .debug_abbrev  0x00007f1b       0x28 C:/devkitPro/devkitARM/bin/../lib/gcc/arm-none-eabi/15.2.0/thumb\libgcc.a(_arm_unorddf2.o)
 .debug_abbrev  0x00007f43       0x28 C:/devkitPro/devkitARM/bin/../lib/gcc/arm-none-eabi/15.2.0/thumb\libgcc.a(_arm_fixdfsi.o)
 .debug_abbrev  0x00007f6b       0x28 C:/devkitPro/devkitARM/bin/../lib/gcc/arm-none-eabi/15.2.0/thumb\libgcc.a(_arm_fixunsdfsi.o)
 .debug_abbrev  0x00007f93       0x28 C:/devkitPro/devkitARM/bin/../lib/gcc/arm-none-eabi/15.2.0/thumb\libgcc.a(_arm_truncdfsf2.o)
 .debug_abbrev  0x00007fbb      0x158 C:/devkitPro/devkitARM/bin/../lib/gcc/arm-none-eabi/15.2.0/thumb\libgcc.a(_muldi3.o)
 .debug_abbrev  0x00008113      0x113 C:/devkitPro/devkitARM/bin/../lib/gcc/arm-none-eabi/15.2.0/thumb\libgcc.a(_fixdfdi.o)
 .debug_abbrev  0x00008226      0x109 C:/devkitPro/devkitARM/bin/../lib/gcc/arm-none-eabi/15.2.0/thumb\libgcc.a(_fixunsdfdi.o)

.debug_line     0x00000000    0x17f06
 *(.debug_line .debug_line.* .debug_line_end)
 .debug_line    0x00000000      0xa24 main.o
 .debug_line    0x00000a24      0x376 C:/devkitPro/libnds/lib\libdswifi9.a(dswifi9.o)
 .debug_line    0x00000d9a      0xdfd C:/devkitPro/libnds/lib\libdswifi9.a(sgIP_DHCP.o)
 .debug_line    0x00001b97     0x1501 C:/devkitPro/libnds/lib\libdswifi9.a(sgIP_DNS.o)
 .debug_line    0x00003098     0x27e7 C:/devkitPro/libnds/lib\libdswifi9.a(sgIP_sockets.o)
 .debug_line    0x0000587f     0x12e7 C:/devkitPro/libnds/lib\libdswifi9.a(wfc.o)
 .debug_line    0x00006b66      0x2b9 C:/devkitPro/libnds/lib\libdswifi9.a(sgIP.o)
 .debug_line    0x00006e1f      0x866 C:/devkitPro/libnds/lib\libdswifi9.a(sgIP_memblock.o)
 .debug_line    0x00007685      0x406 C:/devkitPro/libnds/lib\libdswifi9.a(sgIP_Hub.o)
 .debug_line    0x00007a8b      0x3a5 C:/devkitPro/libnds/lib\libdswifi9.a(sgIP_IP.o)
 .debug_line    0x00007e30      0xe70 C:/devkitPro/libnds/lib\libdswifi9.a(sgIP_ARP.o)
 .debug_line    0x00008ca0      0x115 C:/devkitPro/libnds/lib\libdswifi9.a(sgIP_ICMP.o)
 .debug_line    0x00008db5     0x25ca C:/devkitPro/libnds/lib\libdswifi9.a(sgIP_TCP.o)
 .debug_line    0x0000b37f      0xd91 C:/devkitPro/libnds/lib\libdswifi9.a(sgIP_UDP.o)
 .debug_line    0x0000c110     0x1622 C:/devkitPro/libnds/lib\libnds9.a(console.o)
 .debug_line    0x0000d732      0x457 C:/devkitPro/libnds/lib\libnds9.a(keys.o)
 .debug_line    0x0000db89      0x61c C:/devkitPro/libnds/lib\libnds9.a(background.o)
 .debug_line    0x0000e1a5      0x77f C:/devkitPro/libnds/lib\libnds9.a(trig.o)
 .debug_line    0x0000e924      0x26e C:/devkitPro/calico/lib\libcalico_ds9.a(irq.o)
 .debug_line    0x0000eb92      0xa69 C:/devkitPro/calico/lib\libcalico_ds9.a(tick.o)
 .debug_line    0x0000f5fb      0xeab C:/devkitPro/calico/lib\libcalico_ds9.a(thread_cold.o)
 .debug_line    0x000104a6     0x1058 C:/devkitPro/calico/lib\libcalico_ds9.a(thread_hot.32.o)
 .debug_line    0x000114fe      0xcc4 C:/devkitPro/calico/lib\libcalico_ds9.a(mutex.o)
 .debug_line    0x000121c2      0x4e3 C:/devkitPro/calico/lib\libcalico_ds9.a(mailbox.o)
 .debug_line    0x000126a5      0x765 C:/devkitPro/calico/lib\libcalico_ds9.a(newlib_syscalls.o)
 .debug_line    0x00012e0a       0x7d C:/devkitPro/calico/lib\libcalico_ds9.a(arm-copy-fill.32.o)
 .debug_line    0x00012e87       0x69 C:/devkitPro/calico/lib\libcalico_ds9.a(arm-context.32.o)
 .debug_line    0x00012ef0      0x2aa C:/devkitPro/calico/lib\libcalico_ds9.a(arm-shims.32.o)
 .debug_line    0x0001319a      0x3bd C:/devkitPro/calico/lib\libcalico_ds9.a(startup.crt0.o)
 .debug_line    0x00013557       0x7d C:/devkitPro/calico/lib\libcalico_ds9.a(utils.crt0.o)
 .debug_line    0x000135d4      0x127 C:/devkitPro/calico/lib\libcalico_ds9.a(bios.o)
 .debug_line    0x000136fb      0x983 C:/devkitPro/calico/lib\libcalico_ds9.a(pxi.o)
 .debug_line    0x0001407e      0x16f C:/devkitPro/calico/lib\libcalico_ds9.a(keypad.o)
 .debug_line    0x000141ed      0x578 C:/devkitPro/calico/lib\libcalico_ds9.a(netbuf.o)
 .debug_line    0x00014765      0x108 C:/devkitPro/calico/lib\libcalico_ds9.a(bootstub_arm9.o)
 .debug_line    0x0001486d       0x6e C:/devkitPro/calico/lib\libcalico_ds9.a(mpu_setup.crt0.o)
 .debug_line    0x000148db      0x46b C:/devkitPro/calico/lib\libcalico_ds9.a(sys_startup.o)
 .debug_line    0x00014d46       0x66 C:/devkitPro/calico/lib\libcalico_ds9.a(excpt_handler.32.o)
 .debug_line    0x00014dac      0x3ad C:/devkitPro/calico/lib\libcalico_ds9.a(pm_arm9.o)
 .debug_line    0x00015159      0x19d C:/devkitPro/calico/lib\libcalico_ds9.a(touch.o)
 .debug_line    0x000152f6      0xa26 C:/devkitPro/calico/lib\libcalico_ds9.a(wlmgr.o)
 .debug_line    0x00015d1c       0xb2 C:/devkitPro/calico/lib\libcalico_ds9.a(arm-cache.32.o)
 .debug_line    0x00015dce       0x92 C:/devkitPro/calico/lib\libcalico_ds9.a(irq_handler.32.o)
 .debug_line    0x00015e60      0x594 C:/devkitPro/calico/lib\libcalico_ds9.a(smutex.32.o)
 .debug_line    0x000163f4      0xdf1 C:/devkitPro/calico/lib\libcalico_ds9.a(pm.o)
 .debug_line    0x000171e5       0x73 C:/devkitPro/devkitARM/bin/../lib/gcc/arm-none-eabi/15.2.0/thumb\libgcc.a(_divsi3.o)
 .debug_line    0x00017258       0x4a C:/devkitPro/devkitARM/bin/../lib/gcc/arm-none-eabi/15.2.0/thumb\libgcc.a(_dvmd_tls.o)
 .debug_line    0x000172a2       0x8e C:/devkitPro/devkitARM/bin/../lib/gcc/arm-none-eabi/15.2.0/thumb\libgcc.a(_arm_cmpsf2.o)
 .debug_line    0x00017330       0x4e C:/devkitPro/devkitARM/bin/../lib/gcc/arm-none-eabi/15.2.0/thumb\libgcc.a(_aeabi_uldivmod.o)
 .debug_line    0x0001737e      0x1e7 C:/devkitPro/devkitARM/bin/../lib/gcc/arm-none-eabi/15.2.0/thumb\libgcc.a(_udivmoddi4.o)
 .debug_line    0x00017565       0x54 C:/devkitPro/devkitARM/bin/../lib/gcc/arm-none-eabi/15.2.0/thumb\libgcc.a(_clzdi2.o)
 .debug_line    0x000175b9       0x57 C:/devkitPro/devkitARM/bin/../lib/gcc/arm-none-eabi/15.2.0/thumb\libgcc.a(_clzsi2.o)
 .debug_line    0x00017610       0x52 C:/devkitPro/devkitARM/bin/../lib/gcc/arm-none-eabi/15.2.0/thumb\libgcc.a(_thumb1_case_uqi.o)
 .debug_line    0x00017662       0x53 C:/devkitPro/devkitARM/bin/../lib/gcc/arm-none-eabi/15.2.0/thumb\libgcc.a(_thumb1_case_uhi.o)
 .debug_line    0x000176b5       0x67 C:/devkitPro/devkitARM/bin/../lib/gcc/arm-none-eabi/15.2.0/thumb\libgcc.a(_udivsi3.o)
 .debug_line    0x0001771c      0x158 C:/devkitPro/devkitARM/bin/../lib/gcc/arm-none-eabi/15.2.0/thumb\libgcc.a(_arm_addsubdf3.o)
 .debug_line    0x00017874      0x167 C:/devkitPro/devkitARM/bin/../lib/gcc/arm-none-eabi/15.2.0/thumb\libgcc.a(_arm_muldivdf3.o)
 .debug_line    0x000179db       0x9a C:/devkitPro/devkitARM/bin/../lib/gcc/arm-none-eabi/15.2.0/thumb\libgcc.a(_arm_cmpdf2.o)
 .debug_line    0x00017a75       0x57 C:/devkitPro/devkitARM/bin/../lib/gcc/arm-none-eabi/15.2.0/thumb\libgcc.a(_arm_unorddf2.o)
 .debug_line    0x00017acc       0x60 C:/devkitPro/devkitARM/bin/../lib/gcc/arm-none-eabi/15.2.0/thumb\libgcc.a(_arm_fixdfsi.o)
 .debug_line    0x00017b2c       0x5e C:/devkitPro/devkitARM/bin/../lib/gcc/arm-none-eabi/15.2.0/thumb\libgcc.a(_arm_fixunsdfsi.o)
 .debug_line    0x00017b8a       0x71 C:/devkitPro/devkitARM/bin/../lib/gcc/arm-none-eabi/15.2.0/thumb\libgcc.a(_arm_truncdfsf2.o)
 .debug_line    0x00017bfb      0x13d C:/devkitPro/devkitARM/bin/../lib/gcc/arm-none-eabi/15.2.0/thumb\libgcc.a(_muldi3.o)
 .debug_line    0x00017d38       0xe5 C:/devkitPro/devkitARM/bin/../lib/gcc/arm-none-eabi/15.2.0/thumb\libgcc.a(_fixdfdi.o)
 .debug_line    0x00017e1d       0xe9 C:/devkitPro/devkitARM/bin/../lib/gcc/arm-none-eabi/15.2.0/thumb\libgcc.a(_fixunsdfdi.o)

.debug_frame    0x00000000     0x2bc8
 *(.debug_frame)
 .debug_frame   0x00000000       0xc8 main.o
 .debug_frame   0x000000c8       0x98 C:/devkitPro/libnds/lib\libdswifi9.a(dswifi9.o)
 .debug_frame   0x00000160      0x188 C:/devkitPro/libnds/lib\libdswifi9.a(sgIP_DHCP.o)
 .debug_frame   0x000002e8      0x1a4 C:/devkitPro/libnds/lib\libdswifi9.a(sgIP_DNS.o)
 .debug_frame   0x0000048c      0x360 C:/devkitPro/libnds/lib\libdswifi9.a(sgIP_sockets.o)
 .debug_frame   0x000007ec      0x27c C:/devkitPro/libnds/lib\libdswifi9.a(wfc.o)
 .debug_frame   0x00000a68       0x48 C:/devkitPro/libnds/lib\libdswifi9.a(sgIP.o)
 .debug_frame   0x00000ab0      0x118 C:/devkitPro/libnds/lib\libdswifi9.a(sgIP_memblock.o)
 .debug_frame   0x00000bc8      0x118 C:/devkitPro/libnds/lib\libdswifi9.a(sgIP_Hub.o)
 .debug_frame   0x00000ce0       0x90 C:/devkitPro/libnds/lib\libdswifi9.a(sgIP_IP.o)
 .debug_frame   0x00000d70      0x188 C:/devkitPro/libnds/lib\libdswifi9.a(sgIP_ARP.o)
 .debug_frame   0x00000ef8       0x4c C:/devkitPro/libnds/lib\libdswifi9.a(sgIP_ICMP.o)
 .debug_frame   0x00000f44      0x2b8 C:/devkitPro/libnds/lib\libdswifi9.a(sgIP_TCP.o)
 .debug_frame   0x000011fc      0x138 C:/devkitPro/libnds/lib\libdswifi9.a(sgIP_UDP.o)
 .debug_frame   0x00001334      0x17c C:/devkitPro/libnds/lib\libnds9.a(console.o)
 .debug_frame   0x000014b0       0x98 C:/devkitPro/libnds/lib\libnds9.a(keys.o)
 .debug_frame   0x00001548       0xb4 C:/devkitPro/libnds/lib\libnds9.a(background.o)
 .debug_frame   0x000015fc       0xd8 C:/devkitPro/libnds/lib\libnds9.a(trig.o)
 .debug_frame   0x000016d4       0x28 C:/devkitPro/calico/lib\libcalico_ds9.a(irq.o)
 .debug_frame   0x000016fc       0xf0 C:/devkitPro/calico/lib\libcalico_ds9.a(tick.o)
 .debug_frame   0x000017ec      0x194 C:/devkitPro/calico/lib\libcalico_ds9.a(thread_cold.o)
 .debug_frame   0x00001980      0x10c C:/devkitPro/calico/lib\libcalico_ds9.a(thread_hot.32.o)
 .debug_frame   0x00001a8c       0xf8 C:/devkitPro/calico/lib\libcalico_ds9.a(mutex.o)
 .debug_frame   0x00001b84       0x64 C:/devkitPro/calico/lib\libcalico_ds9.a(mailbox.o)
 .debug_frame   0x00001be8      0x1a4 C:/devkitPro/calico/lib\libcalico_ds9.a(newlib_syscalls.o)
 .debug_frame   0x00001d8c       0x30 C:/devkitPro/calico/lib\libcalico_ds9.a(arm-copy-fill.32.o)
 .debug_frame   0x00001dbc       0x30 C:/devkitPro/calico/lib\libcalico_ds9.a(arm-context.32.o)
 .debug_frame   0x00001dec       0xc0 C:/devkitPro/calico/lib\libcalico_ds9.a(arm-shims.32.o)
 .debug_frame   0x00001eac       0x58 C:/devkitPro/calico/lib\libcalico_ds9.a(startup.crt0.o)
 .debug_frame   0x00001f04       0x30 C:/devkitPro/calico/lib\libcalico_ds9.a(utils.crt0.o)
 .debug_frame   0x00001f34      0x100 C:/devkitPro/calico/lib\libcalico_ds9.a(bios.o)
 .debug_frame   0x00002034      0x15c C:/devkitPro/calico/lib\libcalico_ds9.a(pxi.o)
 .debug_frame   0x00002190       0x20 C:/devkitPro/calico/lib\libcalico_ds9.a(keypad.o)
 .debug_frame   0x000021b0       0xbc C:/devkitPro/calico/lib\libcalico_ds9.a(netbuf.o)
 .debug_frame   0x0000226c       0x30 C:/devkitPro/calico/lib\libcalico_ds9.a(bootstub_arm9.o)
 .debug_frame   0x0000229c       0x20 C:/devkitPro/calico/lib\libcalico_ds9.a(mpu_setup.crt0.o)
 .debug_frame   0x000022bc       0x38 C:/devkitPro/calico/lib\libcalico_ds9.a(sys_startup.o)
 .debug_frame   0x000022f4       0x98 C:/devkitPro/calico/lib\libcalico_ds9.a(pm_arm9.o)
 .debug_frame   0x0000238c       0x28 C:/devkitPro/calico/lib\libcalico_ds9.a(touch.o)
 .debug_frame   0x000023b4      0x150 C:/devkitPro/calico/lib\libcalico_ds9.a(wlmgr.o)
 .debug_frame   0x00002504       0x70 C:/devkitPro/calico/lib\libcalico_ds9.a(arm-cache.32.o)
 .debug_frame   0x00002574       0x20 C:/devkitPro/calico/lib\libcalico_ds9.a(irq_handler.32.o)
 .debug_frame   0x00002594       0x5c C:/devkitPro/calico/lib\libcalico_ds9.a(smutex.32.o)
 .debug_frame   0x000025f0      0x190 C:/devkitPro/calico/lib\libcalico_ds9.a(pm.o)
 .debug_frame   0x00002780       0x20 C:/devkitPro/devkitARM/bin/../lib/gcc/arm-none-eabi/15.2.0/thumb\libgcc.a(_divsi3.o)
 .debug_frame   0x000027a0       0xc8 C:/devkitPro/devkitARM/bin/../lib/gcc/arm-none-eabi/15.2.0/thumb\libgcc.a(_arm_cmpsf2.o)
 .debug_frame   0x00002868       0x2c C:/devkitPro/devkitARM/bin/../lib/gcc/arm-none-eabi/15.2.0/thumb\libgcc.a(_aeabi_uldivmod.o)
 .debug_frame   0x00002894       0x3c C:/devkitPro/devkitARM/bin/../lib/gcc/arm-none-eabi/15.2.0/thumb\libgcc.a(_udivmoddi4.o)
 .debug_frame   0x000028d0       0x20 C:/devkitPro/devkitARM/bin/../lib/gcc/arm-none-eabi/15.2.0/thumb\libgcc.a(_udivsi3.o)
 .debug_frame   0x000028f0       0xac C:/devkitPro/devkitARM/bin/../lib/gcc/arm-none-eabi/15.2.0/thumb\libgcc.a(_arm_addsubdf3.o)
 .debug_frame   0x0000299c       0x50 C:/devkitPro/devkitARM/bin/../lib/gcc/arm-none-eabi/15.2.0/thumb\libgcc.a(_arm_muldivdf3.o)
 .debug_frame   0x000029ec       0xc4 C:/devkitPro/devkitARM/bin/../lib/gcc/arm-none-eabi/15.2.0/thumb\libgcc.a(_arm_cmpdf2.o)
 .debug_frame   0x00002ab0       0x20 C:/devkitPro/devkitARM/bin/../lib/gcc/arm-none-eabi/15.2.0/thumb\libgcc.a(_arm_unorddf2.o)
 .debug_frame   0x00002ad0       0x24 C:/devkitPro/devkitARM/bin/../lib/gcc/arm-none-eabi/15.2.0/thumb\libgcc.a(_arm_fixdfsi.o)
 .debug_frame   0x00002af4       0x24 C:/devkitPro/devkitARM/bin/../lib/gcc/arm-none-eabi/15.2.0/thumb\libgcc.a(_arm_fixunsdfsi.o)
 .debug_frame   0x00002b18       0x24 C:/devkitPro/devkitARM/bin/../lib/gcc/arm-none-eabi/15.2.0/thumb\libgcc.a(_arm_truncdfsf2.o)
 .debug_frame   0x00002b3c       0x34 C:/devkitPro/devkitARM/bin/../lib/gcc/arm-none-eabi/15.2.0/thumb\libgcc.a(_muldi3.o)
 .debug_frame   0x00002b70       0x2c C:/devkitPro/devkitARM/bin/../lib/gcc/arm-none-eabi/15.2.0/thumb\libgcc.a(_fixdfdi.o)
 .debug_frame   0x00002b9c       0x2c C:/devkitPro/devkitARM/bin/../lib/gcc/arm-none-eabi/15.2.0/thumb\libgcc.a(_fixunsdfdi.o)

.debug_str      0x00000000     0x6dc6
 *(.debug_str)
 .debug_str     0x00000000     0x6dc6 main.o
                                0xa67 (size before relaxing)
 .debug_str     0x00006dc6        0x0 C:/devkitPro/libnds/lib\libdswifi9.a(dswifi9.o)
                                0x484 (size before relaxing)
 .debug_str     0x00006dc6        0x0 C:/devkitPro/libnds/lib\libdswifi9.a(sgIP_DHCP.o)
                                0x703 (size before relaxing)
 .debug_str     0x00006dc6        0x0 C:/devkitPro/libnds/lib\libdswifi9.a(sgIP_DNS.o)
                                0x84b (size before relaxing)
 .debug_str     0x00006dc6        0x0 C:/devkitPro/libnds/lib\libdswifi9.a(sgIP_sockets.o)
                                0xb6c (size before relaxing)
 .debug_str     0x00006dc6        0x0 C:/devkitPro/libnds/lib\libdswifi9.a(wfc.o)
                               0x11db (size before relaxing)
 .debug_str     0x00006dc6        0x0 C:/devkitPro/libnds/lib\libdswifi9.a(sgIP.o)
                                0x45b (size before relaxing)
 .debug_str     0x00006dc6        0x0 C:/devkitPro/libnds/lib\libdswifi9.a(sgIP_memblock.o)
                                0x557 (size before relaxing)
 .debug_str     0x00006dc6        0x0 C:/devkitPro/libnds/lib\libdswifi9.a(sgIP_Hub.o)
                                0x47d (size before relaxing)
 .debug_str     0x00006dc6        0x0 C:/devkitPro/libnds/lib\libdswifi9.a(sgIP_IP.o)
                                0x421 (size before relaxing)
 .debug_str     0x00006dc6        0x0 C:/devkitPro/libnds/lib\libdswifi9.a(sgIP_ARP.o)
                                0x52b (size before relaxing)
 .debug_str     0x00006dc6        0x0 C:/devkitPro/libnds/lib\libdswifi9.a(sgIP_ICMP.o)
                                0x26d (size before relaxing)
 .debug_str     0x00006dc6        0x0 C:/devkitPro/libnds/lib\libdswifi9.a(sgIP_TCP.o)
                                0xa82 (size before relaxing)
 .debug_str     0x00006dc6        0x0 C:/devkitPro/libnds/lib\libdswifi9.a(sgIP_UDP.o)
                                0x6b5 (size before relaxing)
 .debug_str     0x00006dc6        0x0 C:/devkitPro/libnds/lib\libnds9.a(console.o)
                               0x130b (size before relaxing)
 .debug_str     0x00006dc6        0x0 C:/devkitPro/libnds/lib\libnds9.a(keys.o)
                                0x2eb (size before relaxing)
 .debug_str     0x00006dc6        0x0 C:/devkitPro/libnds/lib\libnds9.a(background.o)
                                0x76c (size before relaxing)
 .debug_str     0x00006dc6        0x0 C:/devkitPro/libnds/lib\libnds9.a(trig.o)
                                0x2d5 (size before relaxing)
 .debug_str     0x00006dc6        0x0 C:/devkitPro/calico/lib\libcalico_ds9.a(irq.o)
                                0x20a (size before relaxing)
 .debug_str     0x00006dc6        0x0 C:/devkitPro/calico/lib\libcalico_ds9.a(tick.o)
                                0x375 (size before relaxing)
 .debug_str     0x00006dc6        0x0 C:/devkitPro/calico/lib\libcalico_ds9.a(thread_cold.o)
                                0x9e0 (size before relaxing)
 .debug_str     0x00006dc6        0x0 C:/devkitPro/calico/lib\libcalico_ds9.a(thread_hot.32.o)
                                0x4c8 (size before relaxing)
 .debug_str     0x00006dc6        0x0 C:/devkitPro/calico/lib\libcalico_ds9.a(mutex.o)
                                0x509 (size before relaxing)
 .debug_str     0x00006dc6        0x0 C:/devkitPro/calico/lib\libcalico_ds9.a(mailbox.o)
                                0x37b (size before relaxing)
 .debug_str     0x00006dc6        0x0 C:/devkitPro/calico/lib\libcalico_ds9.a(newlib_syscalls.o)
                                0xb64 (size before relaxing)
 .debug_str     0x00006dc6        0x0 C:/devkitPro/calico/lib\libcalico_ds9.a(arm-copy-fill.32.o)
                                 0xaa (size before relaxing)
 .debug_str     0x00006dc6        0x0 C:/devkitPro/calico/lib\libcalico_ds9.a(arm-context.32.o)
                                 0xac (size before relaxing)
 .debug_str     0x00006dc6        0x0 C:/devkitPro/calico/lib\libcalico_ds9.a(arm-shims.32.o)
                                0x245 (size before relaxing)
 .debug_str     0x00006dc6        0x0 C:/devkitPro/calico/lib\libcalico_ds9.a(startup.crt0.o)
                                0x35d (size before relaxing)
 .debug_str     0x00006dc6        0x0 C:/devkitPro/calico/lib\libcalico_ds9.a(utils.crt0.o)
                                 0xb3 (size before relaxing)
 .debug_str     0x00006dc6        0x0 C:/devkitPro/calico/lib\libcalico_ds9.a(bios.o)
                                0x174 (size before relaxing)
 .debug_str     0x00006dc6        0x0 C:/devkitPro/calico/lib\libcalico_ds9.a(pxi.o)
                                0x960 (size before relaxing)
 .debug_str     0x00006dc6        0x0 C:/devkitPro/calico/lib\libcalico_ds9.a(keypad.o)
                                0x25f (size before relaxing)
 .debug_str     0x00006dc6        0x0 C:/devkitPro/calico/lib\libcalico_ds9.a(netbuf.o)
                                0x3eb (size before relaxing)
 .debug_str     0x00006dc6        0x0 C:/devkitPro/calico/lib\libcalico_ds9.a(bootstub_arm9.o)
                                 0xbb (size before relaxing)
 .debug_str     0x00006dc6        0x0 C:/devkitPro/calico/lib\libcalico_ds9.a(mpu_setup.crt0.o)
                                 0xa0 (size before relaxing)
 .debug_str     0x00006dc6        0x0 C:/devkitPro/calico/lib\libcalico_ds9.a(sys_startup.o)
                                0x37a (size before relaxing)
 .debug_str     0x00006dc6        0x0 C:/devkitPro/calico/lib\libcalico_ds9.a(excpt_handler.32.o)
                                 0xe5 (size before relaxing)
 .debug_str     0x00006dc6        0x0 C:/devkitPro/calico/lib\libcalico_ds9.a(pm_arm9.o)
                                0x641 (size before relaxing)
 .debug_str     0x00006dc6        0x0 C:/devkitPro/calico/lib\libcalico_ds9.a(touch.o)
                                0x282 (size before relaxing)
 .debug_str     0x00006dc6        0x0 C:/devkitPro/calico/lib\libcalico_ds9.a(wlmgr.o)
                                0xdd7 (size before relaxing)
 .debug_str     0x00006dc6        0x0 C:/devkitPro/calico/lib\libcalico_ds9.a(arm-cache.32.o)
                                0x100 (size before relaxing)
 .debug_str     0x00006dc6        0x0 C:/devkitPro/calico/lib\libcalico_ds9.a(irq_handler.32.o)
                                 0x9e (size before relaxing)
 .debug_str     0x00006dc6        0x0 C:/devkitPro/calico/lib\libcalico_ds9.a(smutex.32.o)
                                0x411 (size before relaxing)
 .debug_str     0x00006dc6        0x0 C:/devkitPro/calico/lib\libcalico_ds9.a(pm.o)
                                0xd3c (size before relaxing)
 .debug_str     0x00006dc6        0x0 C:/devkitPro/devkitARM/bin/../lib/gcc/arm-none-eabi/15.2.0/thumb\libgcc.a(_divsi3.o)
                                 0xf4 (size before relaxing)
 .debug_str     0x00006dc6        0x0 C:/devkitPro/devkitARM/bin/../lib/gcc/arm-none-eabi/15.2.0/thumb\libgcc.a(_dvmd_tls.o)
                                 0xf7 (size before relaxing)
 .debug_str     0x00006dc6        0x0 C:/devkitPro/devkitARM/bin/../lib/gcc/arm-none-eabi/15.2.0/thumb\libgcc.a(_arm_cmpsf2.o)
                                0x191 (size before relaxing)
 .debug_str     0x00006dc6        0x0 C:/devkitPro/devkitARM/bin/../lib/gcc/arm-none-eabi/15.2.0/thumb\libgcc.a(_aeabi_uldivmod.o)
                                 0xd7 (size before relaxing)
 .debug_str     0x00006dc6        0x0 C:/devkitPro/devkitARM/bin/../lib/gcc/arm-none-eabi/15.2.0/thumb\libgcc.a(_udivmoddi4.o)
                                0x6a5 (size before relaxing)
 .debug_str     0x00006dc6        0x0 C:/devkitPro/devkitARM/bin/../lib/gcc/arm-none-eabi/15.2.0/thumb\libgcc.a(_clzdi2.o)
                                 0xe4 (size before relaxing)
 .debug_str     0x00006dc6        0x0 C:/devkitPro/devkitARM/bin/../lib/gcc/arm-none-eabi/15.2.0/thumb\libgcc.a(_clzsi2.o)
                                 0xe4 (size before relaxing)
 .debug_str     0x00006dc6        0x0 C:/devkitPro/devkitARM/bin/../lib/gcc/arm-none-eabi/15.2.0/thumb\libgcc.a(_thumb1_case_uqi.o)
                                 0xf1 (size before relaxing)
 .debug_str     0x00006dc6        0x0 C:/devkitPro/devkitARM/bin/../lib/gcc/arm-none-eabi/15.2.0/thumb\libgcc.a(_thumb1_case_uhi.o)
                                 0xf1 (size before relaxing)
 .debug_str     0x00006dc6        0x0 C:/devkitPro/devkitARM/bin/../lib/gcc/arm-none-eabi/15.2.0/thumb\libgcc.a(_udivsi3.o)
                                 0xf6 (size before relaxing)
 .debug_str     0x00006dc6        0x0 C:/devkitPro/devkitARM/bin/../lib/gcc/arm-none-eabi/15.2.0/thumb\libgcc.a(_arm_addsubdf3.o)
                                0x188 (size before relaxing)
 .debug_str     0x00006dc6        0x0 C:/devkitPro/devkitARM/bin/../lib/gcc/arm-none-eabi/15.2.0/thumb\libgcc.a(_arm_muldivdf3.o)
                                0x108 (size before relaxing)
 .debug_str     0x00006dc6        0x0 C:/devkitPro/devkitARM/bin/../lib/gcc/arm-none-eabi/15.2.0/thumb\libgcc.a(_arm_cmpdf2.o)
                                0x191 (size before relaxing)
 .debug_str     0x00006dc6        0x0 C:/devkitPro/devkitARM/bin/../lib/gcc/arm-none-eabi/15.2.0/thumb\libgcc.a(_arm_unorddf2.o)
                                 0xf6 (size before relaxing)
 .debug_str     0x00006dc6        0x0 C:/devkitPro/devkitARM/bin/../lib/gcc/arm-none-eabi/15.2.0/thumb\libgcc.a(_arm_fixdfsi.o)
                                 0xf3 (size before relaxing)
 .debug_str     0x00006dc6        0x0 C:/devkitPro/devkitARM/bin/../lib/gcc/arm-none-eabi/15.2.0/thumb\libgcc.a(_arm_fixunsdfsi.o)
                                 0xf7 (size before relaxing)
 .debug_str     0x00006dc6        0x0 C:/devkitPro/devkitARM/bin/../lib/gcc/arm-none-eabi/15.2.0/thumb\libgcc.a(_arm_truncdfsf2.o)
                                 0xf5 (size before relaxing)
 .debug_str     0x00006dc6        0x0 C:/devkitPro/devkitARM/bin/../lib/gcc/arm-none-eabi/15.2.0/thumb\libgcc.a(_muldi3.o)
                                0x6cc (size before relaxing)
 .debug_str     0x00006dc6        0x0 C:/devkitPro/devkitARM/bin/../lib/gcc/arm-none-eabi/15.2.0/thumb\libgcc.a(_fixdfdi.o)
                                0x6b9 (size before relaxing)
 .debug_str     0x00006dc6        0x0 C:/devkitPro/devkitARM/bin/../lib/gcc/arm-none-eabi/15.2.0/thumb\libgcc.a(_fixunsdfdi.o)
                                0x6c8 (size before relaxing)

.debug_loc
 *(.debug_loc)

.debug_macinfo
 *(.debug_macinfo)

.debug_weaknames
 *(.debug_weaknames)

.debug_funcnames
 *(.debug_funcnames)

.debug_typenames
 *(.debug_typenames)

.debug_varnames
 *(.debug_varnames)

.debug_pubtypes
 *(.debug_pubtypes)

.debug_ranges
 *(.debug_ranges)

.debug_macro
 *(.debug_macro)

.debug_addr
 *(.debug_addr)

.ARM.attributes
                0x00000000       0x27
 *(.ARM.attributes)
 .ARM.attributes
                0x00000000       0x1c C:/devkitPro/devkitARM/bin/../lib/gcc/arm-none-eabi/15.2.0/thumb/crti.o
 .ARM.attributes
                0x0000001c       0x2a C:/devkitPro/devkitARM/bin/../lib/gcc/arm-none-eabi/15.2.0/thumb/crtbegin.o
 .ARM.attributes
                0x00000046       0x2b main.o
 .ARM.attributes
                0x00000071       0x2b C:/devkitPro/libnds/lib\libdswifi9.a(dswifi9.o)
 .ARM.attributes
                0x0000009c       0x2b C:/devkitPro/libnds/lib\libdswifi9.a(sgIP_DHCP.o)
 .ARM.attributes
                0x000000c7       0x2b C:/devkitPro/libnds/lib\libdswifi9.a(sgIP_DNS.o)
 .ARM.attributes
                0x000000f2       0x2b C:/devkitPro/libnds/lib\libdswifi9.a(sgIP_sockets.o)
 .ARM.attributes
                0x0000011d       0x2b C:/devkitPro/libnds/lib\libdswifi9.a(wfc.o)
 .ARM.attributes
                0x00000148       0x2b C:/devkitPro/libnds/lib\libdswifi9.a(wpa.twl.o)
 .ARM.attributes
                0x00000173       0x2b C:/devkitPro/libnds/lib\libdswifi9.a(sgIP.o)
 .ARM.attributes
                0x0000019e       0x2b C:/devkitPro/libnds/lib\libdswifi9.a(sgIP_memblock.o)
 .ARM.attributes
                0x000001c9       0x2b C:/devkitPro/libnds/lib\libdswifi9.a(sgIP_Hub.o)
 .ARM.attributes
                0x000001f4       0x2b C:/devkitPro/libnds/lib\libdswifi9.a(sgIP_IP.o)
 .ARM.attributes
                0x0000021f       0x2b C:/devkitPro/libnds/lib\libdswifi9.a(sgIP_ARP.o)
 .ARM.attributes
                0x0000024a       0x2b C:/devkitPro/libnds/lib\libdswifi9.a(sgIP_ICMP.o)
 .ARM.attributes
                0x00000275       0x2b C:/devkitPro/libnds/lib\libdswifi9.a(sgIP_TCP.o)
 .ARM.attributes
                0x000002a0       0x2b C:/devkitPro/libnds/lib\libdswifi9.a(sgIP_UDP.o)
 .ARM.attributes
                0x000002cb       0x2b C:/devkitPro/libnds/lib\libnds9.a(console.o)
 .ARM.attributes
                0x000002f6       0x2b C:/devkitPro/libnds/lib\libnds9.a(keys.o)
 .ARM.attributes
                0x00000321       0x1b C:/devkitPro/libnds/lib\libnds9.a(default_font.bin.o)
 .ARM.attributes
                0x0000033c       0x2b C:/devkitPro/libnds/lib\libnds9.a(background.o)
 .ARM.attributes
                0x00000367       0x2b C:/devkitPro/libnds/lib\libnds9.a(trig.o)
 .ARM.attributes
                0x00000392       0x2b C:/devkitPro/calico/lib\libcalico_ds9.a(irq.o)
 .ARM.attributes
                0x000003bd       0x2b C:/devkitPro/calico/lib\libcalico_ds9.a(tick.o)
 .ARM.attributes
                0x000003e8       0x2b C:/devkitPro/calico/lib\libcalico_ds9.a(thread_cold.o)
 .ARM.attributes
                0x00000413       0x2b C:/devkitPro/calico/lib\libcalico_ds9.a(thread_hot.32.o)
 .ARM.attributes
                0x0000043e       0x2b C:/devkitPro/calico/lib\libcalico_ds9.a(mutex.o)
 .ARM.attributes
                0x00000469       0x2b C:/devkitPro/calico/lib\libcalico_ds9.a(mailbox.o)
 .ARM.attributes
                0x00000494       0x2b C:/devkitPro/calico/lib\libcalico_ds9.a(newlib_syscalls.o)
 .ARM.attributes
                0x000004bf       0x1b C:/devkitPro/calico/lib\libcalico_ds9.a(arm-copy-fill.32.o)
 .ARM.attributes
                0x000004da       0x1b C:/devkitPro/calico/lib\libcalico_ds9.a(arm-context.32.o)
 .ARM.attributes
                0x000004f5       0x2b C:/devkitPro/calico/lib\libcalico_ds9.a(arm-shims.32.o)
 .ARM.attributes
                0x00000520       0x2b C:/devkitPro/calico/lib\libcalico_ds9.a(startup.crt0.o)
 .ARM.attributes
                0x0000054b       0x1b C:/devkitPro/calico/lib\libcalico_ds9.a(utils.crt0.o)
 .ARM.attributes
                0x00000566       0x1b C:/devkitPro/calico/lib\libcalico_ds9.a(bios.o)
 .ARM.attributes
                0x00000581       0x1b C:/devkitPro/calico/lib\libcalico_ds9.a(bios.twl.o)
 .ARM.attributes
                0x0000059c       0x2b C:/devkitPro/calico/lib\libcalico_ds9.a(pxi.o)
 .ARM.attributes
                0x000005c7       0x2b C:/devkitPro/calico/lib\libcalico_ds9.a(keypad.o)
 .ARM.attributes
                0x000005f2       0x2b C:/devkitPro/calico/lib\libcalico_ds9.a(netbuf.o)
 .ARM.attributes
                0x0000061d       0x1b C:/devkitPro/calico/lib\libcalico_ds9.a(bootstub_arm9.o)
 .ARM.attributes
                0x00000638       0x1b C:/devkitPro/calico/lib\libcalico_ds9.a(mpu_setup.crt0.o)
 .ARM.attributes
                0x00000653       0x2b C:/devkitPro/calico/lib\libcalico_ds9.a(sys_startup.o)
 .ARM.attributes
                0x0000067e       0x1b C:/devkitPro/calico/lib\libcalico_ds9.a(excpt_handler.32.o)
 .ARM.attributes
                0x00000699       0x2b C:/devkitPro/calico/lib\libcalico_ds9.a(pm_arm9.o)
 .ARM.attributes
                0x000006c4       0x2b C:/devkitPro/calico/lib\libcalico_ds9.a(touch.o)
 .ARM.attributes
                0x000006ef       0x2b C:/devkitPro/calico/lib\libcalico_ds9.a(wlmgr.o)
 .ARM.attributes
                0x0000071a       0x1b C:/devkitPro/calico/lib\libcalico_ds9.a(arm-cache.32.o)
 .ARM.attributes
                0x00000735       0x1b C:/devkitPro/calico/lib\libcalico_ds9.a(irq_handler.32.o)
 .ARM.attributes
                0x00000750       0x2b C:/devkitPro/calico/lib\libcalico_ds9.a(smutex.32.o)
 .ARM.attributes
                0x0000077b       0x2b C:/devkitPro/calico/lib\libcalico_ds9.a(pm.o)
 .ARM.attributes
                0x000007a6       0x1c C:/devkitPro/devkitARM/bin/../lib/gcc/arm-none-eabi/15.2.0/thumb\libgcc.a(_divsi3.o)
 .ARM.attributes
                0x000007c2       0x1c C:/devkitPro/devkitARM/bin/../lib/gcc/arm-none-eabi/15.2.0/thumb\libgcc.a(_dvmd_tls.o)
 .ARM.attributes
                0x000007de       0x1c C:/devkitPro/devkitARM/bin/../lib/gcc/arm-none-eabi/15.2.0/thumb\libgcc.a(_arm_cmpsf2.o)
 .ARM.attributes
                0x000007fa       0x1c C:/devkitPro/devkitARM/bin/../lib/gcc/arm-none-eabi/15.2.0/thumb\libgcc.a(_aeabi_uldivmod.o)
 .ARM.attributes
                0x00000816       0x1c C:/devkitPro/devkitARM/bin/../lib/gcc/arm-none-eabi/15.2.0/thumb\libgcc.a(_sync_none.o)
 .ARM.attributes
                0x00000832       0x2a C:/devkitPro/devkitARM/bin/../lib/gcc/arm-none-eabi/15.2.0/thumb\libgcc.a(_udivmoddi4.o)
 .ARM.attributes
                0x0000085c       0x1c C:/devkitPro/devkitARM/bin/../lib/gcc/arm-none-eabi/15.2.0/thumb\libgcc.a(_clzdi2.o)
 .ARM.attributes
                0x00000878       0x1c C:/devkitPro/devkitARM/bin/../lib/gcc/arm-none-eabi/15.2.0/thumb\libgcc.a(_clzsi2.o)
 .ARM.attributes
                0x00000894       0x2a C:/devkitPro/devkitARM/bin/../lib/gcc/arm-none-eabi/15.2.0/../../../../arm-none-eabi/lib/thumb\libg.a(libc_a-strchr.o)
 .ARM.attributes
                0x000008be       0x2a C:/devkitPro/devkitARM/bin/../lib/gcc/arm-none-eabi/15.2.0/../../../../arm-none-eabi/lib/thumb\libg.a(libc_a-memmove.o)
 .ARM.attributes
                0x000008e8       0x2a C:/devkitPro/devkitARM/bin/../lib/gcc/arm-none-eabi/15.2.0/../../../../arm-none-eabi/lib/thumb\libg.a(libc_a-strlen.o)
 .ARM.attributes
                0x00000912       0x2a C:/devkitPro/devkitARM/bin/../lib/gcc/arm-none-eabi/15.2.0/../../../../arm-none-eabi/lib/thumb\libg.a(libc_a-sprintf.o)
 .ARM.attributes
                0x0000093c       0x2a C:/devkitPro/devkitARM/bin/../lib/gcc/arm-none-eabi/15.2.0/../../../../arm-none-eabi/lib/thumb\libg.a(libc_a-init.o)
 .ARM.attributes
                0x00000966       0x2a C:/devkitPro/devkitARM/bin/../lib/gcc/arm-none-eabi/15.2.0/../../../../arm-none-eabi/lib/thumb\libg.a(libc_a-bsearch.o)
 .ARM.attributes
                0x00000990       0x2a C:/devkitPro/devkitARM/bin/../lib/gcc/arm-none-eabi/15.2.0/../../../../arm-none-eabi/lib/thumb\libg.a(libc_a-siscanf.o)
 .ARM.attributes
                0x000009ba       0x2a C:/devkitPro/devkitARM/bin/../lib/gcc/arm-none-eabi/15.2.0/../../../../arm-none-eabi/lib/thumb\libg.a(libc_a-mallocr.o)
 .ARM.attributes
                0x000009e4       0x2a C:/devkitPro/devkitARM/bin/../lib/gcc/arm-none-eabi/15.2.0/../../../../arm-none-eabi/lib/thumb\libg.a(libc_a-freer.o)
 .ARM.attributes
                0x00000a0e       0x2a C:/devkitPro/devkitARM/bin/../lib/gcc/arm-none-eabi/15.2.0/../../../../arm-none-eabi/lib/thumb\libg.a(libc_a-strtok.o)
 .ARM.attributes
                0x00000a38       0x2a C:/devkitPro/devkitARM/bin/../lib/gcc/arm-none-eabi/15.2.0/../../../../arm-none-eabi/lib/thumb\libg.a(libc_a-svfprintf.o)
 .ARM.attributes
                0x00000a62       0x2a C:/devkitPro/devkitARM/bin/../lib/gcc/arm-none-eabi/15.2.0/../../../../arm-none-eabi/lib/thumb\libg.a(libc_a-strnlen.o)
 .ARM.attributes
                0x00000a8c       0x2a C:/devkitPro/devkitARM/bin/../lib/gcc/arm-none-eabi/15.2.0/../../../../arm-none-eabi/lib/thumb\libg.a(libc_a-malloc.o)
 .ARM.attributes
                0x00000ab6       0x2a C:/devkitPro/devkitARM/bin/../lib/gcc/arm-none-eabi/15.2.0/../../../../arm-none-eabi/lib/thumb\libg.a(libc_a-strstr.o)
 .ARM.attributes
                0x00000ae0       0x2a C:/devkitPro/devkitARM/bin/../lib/gcc/arm-none-eabi/15.2.0/../../../../arm-none-eabi/lib/thumb\libg.a(libc_a-memset.o)
 .ARM.attributes
                0x00000b0a       0x2a C:/devkitPro/devkitARM/bin/../lib/gcc/arm-none-eabi/15.2.0/../../../../arm-none-eabi/lib/thumb\libg.a(libc_a-mlock.o)
 .ARM.attributes
                0x00000b34       0x2a C:/devkitPro/devkitARM/bin/../lib/gcc/arm-none-eabi/15.2.0/../../../../arm-none-eabi/lib/thumb\libg.a(libc_a-exit.o)
 .ARM.attributes
                0x00000b5e       0x2a C:/devkitPro/devkitARM/bin/../lib/gcc/arm-none-eabi/15.2.0/../../../../arm-none-eabi/lib/thumb\libg.a(libc_a-setvbuf.o)
 .ARM.attributes
                0x00000b88       0x2a C:/devkitPro/devkitARM/bin/../lib/gcc/arm-none-eabi/15.2.0/../../../../arm-none-eabi/lib/thumb\libg.a(libc_a-strtok_r.o)
 .ARM.attributes
                0x00000bb2       0x2a C:/devkitPro/devkitARM/bin/../lib/gcc/arm-none-eabi/15.2.0/../../../../arm-none-eabi/lib/thumb\libg.a(libc_a-sysclose.o)
 .ARM.attributes
                0x00000bdc       0x2a C:/devkitPro/devkitARM/bin/../lib/gcc/arm-none-eabi/15.2.0/../../../../arm-none-eabi/lib/thumb\libg.a(libc_a-strncpy.o)
 .ARM.attributes
                0x00000c06       0x2a C:/devkitPro/devkitARM/bin/../lib/gcc/arm-none-eabi/15.2.0/../../../../arm-none-eabi/lib/thumb\libg.a(libc_a-memcpy-stub.o)
 .ARM.attributes
                0x00000c30       0x2a C:/devkitPro/devkitARM/bin/../lib/gcc/arm-none-eabi/15.2.0/../../../../arm-none-eabi/lib/thumb\libg.a(libc_a-wcsrtombs.o)
 .ARM.attributes
                0x00000c5a       0x2a C:/devkitPro/devkitARM/bin/../lib/gcc/arm-none-eabi/15.2.0/../../../../arm-none-eabi/lib/thumb\libg.a(libc_a-svfiprintf.o)
 .ARM.attributes
                0x00000c84       0x2a C:/devkitPro/devkitARM/bin/../lib/gcc/arm-none-eabi/15.2.0/../../../../arm-none-eabi/lib/thumb\libg.a(libc_a-sscanf.o)
 .ARM.attributes
                0x00000cae       0x2a C:/devkitPro/devkitARM/bin/../lib/gcc/arm-none-eabi/15.2.0/../../../../arm-none-eabi/lib/thumb\libg.a(libc_a-iprintf.o)
 .ARM.attributes
                0x00000cd8       0x2a C:/devkitPro/devkitARM/bin/../lib/gcc/arm-none-eabi/15.2.0/../../../../arm-none-eabi/lib/thumb\libg.a(libm_a-s_frexp.o)
 .ARM.attributes
                0x00000d02       0x2a C:/devkitPro/devkitARM/bin/../lib/gcc/arm-none-eabi/15.2.0/../../../../arm-none-eabi/lib/thumb\libg.a(libc_a-stdio.o)
 .ARM.attributes
                0x00000d2c       0x2a C:/devkitPro/devkitARM/bin/../lib/gcc/arm-none-eabi/15.2.0/../../../../arm-none-eabi/lib/thumb\libg.a(libc_a-locale.o)
 .ARM.attributes
                0x00000d56       0x2a C:/devkitPro/devkitARM/bin/../lib/gcc/arm-none-eabi/15.2.0/../../../../arm-none-eabi/lib/thumb\libg.a(libc_a-ssprint_r.o)
 .ARM.attributes
                0x00000d80       0x2a C:/devkitPro/devkitARM/bin/../lib/gcc/arm-none-eabi/15.2.0/../../../../arm-none-eabi/lib/thumb\libg.a(libc_a-vfiprintf.o)
 .ARM.attributes
                0x00000daa       0x2a C:/devkitPro/devkitARM/bin/../lib/gcc/arm-none-eabi/15.2.0/../../../../arm-none-eabi/lib/thumb\libg.a(libc_a-malignr.o)
 .ARM.attributes
                0x00000dd4       0x2a C:/devkitPro/devkitARM/bin/../lib/gcc/arm-none-eabi/15.2.0/../../../../arm-none-eabi/lib/thumb\libg.a(libc_a-strcat.o)
 .ARM.attributes
                0x00000dfe       0x2a C:/devkitPro/devkitARM/bin/../lib/gcc/arm-none-eabi/15.2.0/../../../../arm-none-eabi/lib/thumb\libg.a(libc_a-wcsnrtombs.o)
 .ARM.attributes
                0x00000e28       0x2a C:/devkitPro/devkitARM/bin/../lib/gcc/arm-none-eabi/15.2.0/../../../../arm-none-eabi/lib/thumb\libg.a(libc_a-svfiscanf.o)
 .ARM.attributes
                0x00000e52       0x2a C:/devkitPro/devkitARM/bin/../lib/gcc/arm-none-eabi/15.2.0/../../../../arm-none-eabi/lib/thumb\libg.a(libc_a-memcmp.o)
 .ARM.attributes
                0x00000e7c       0x2a C:/devkitPro/devkitARM/bin/../lib/gcc/arm-none-eabi/15.2.0/../../../../arm-none-eabi/lib/thumb\libg.a(libc_a-findfp.o)
 .ARM.attributes
                0x00000ea6       0x2a C:/devkitPro/devkitARM/bin/../lib/gcc/arm-none-eabi/15.2.0/../../../../arm-none-eabi/lib/thumb\libg.a(libc_a-strtoul.o)
 .ARM.attributes
                0x00000ed0       0x2a C:/devkitPro/devkitARM/bin/../lib/gcc/arm-none-eabi/15.2.0/../../../../arm-none-eabi/lib/thumb\libg.a(libc_a-mbtowc_r.o)
 .ARM.attributes
                0x00000efa       0x2a C:/devkitPro/devkitARM/bin/../lib/gcc/arm-none-eabi/15.2.0/../../../../arm-none-eabi/lib/thumb\libg.a(libc_a-fwalk.o)
 .ARM.attributes
                0x00000f24       0x2a C:/devkitPro/devkitARM/bin/../lib/gcc/arm-none-eabi/15.2.0/../../../../arm-none-eabi/lib/thumb\libg.a(libc_a-sprint_r.o)
 .ARM.attributes
                0x00000f4e       0x2a C:/devkitPro/devkitARM/bin/../lib/gcc/arm-none-eabi/15.2.0/../../../../arm-none-eabi/lib/thumb\libg.a(libc_a-iswspace.o)
 .ARM.attributes
                0x00000f78       0x2a C:/devkitPro/devkitARM/bin/../lib/gcc/arm-none-eabi/15.2.0/../../../../arm-none-eabi/lib/thumb\libg.a(libc_a-localeconv.o)
 .ARM.attributes
                0x00000fa2       0x2a C:/devkitPro/devkitARM/bin/../lib/gcc/arm-none-eabi/15.2.0/../../../../arm-none-eabi/lib/thumb\libg.a(libc_a-realloc.o)
 .ARM.attributes
                0x00000fcc       0x2a C:/devkitPro/devkitARM/bin/../lib/gcc/arm-none-eabi/15.2.0/../../../../arm-none-eabi/lib/thumb\libg.a(libc_a-strlcpy.o)
 .ARM.attributes
                0x00000ff6       0x2a C:/devkitPro/devkitARM/bin/../lib/gcc/arm-none-eabi/15.2.0/../../../../arm-none-eabi/lib/thumb\libg.a(libc_a-memchr-stub.o)
 .ARM.attributes
                0x00001020       0x2a C:/devkitPro/devkitARM/bin/../lib/gcc/arm-none-eabi/15.2.0/../../../../arm-none-eabi/lib/thumb\libg.a(libc_a-strcasecmp.o)
 .ARM.attributes
                0x0000104a       0x2a C:/devkitPro/devkitARM/bin/../lib/gcc/arm-none-eabi/15.2.0/../../../../arm-none-eabi/lib/thumb\libg.a(libc_a-dtoa.o)
 .ARM.attributes
                0x00001074       0x2a C:/devkitPro/devkitARM/bin/../lib/gcc/arm-none-eabi/15.2.0/../../../../arm-none-eabi/lib/thumb\libg.a(libc_a-wcrtomb.o)
 .ARM.attributes
                0x0000109e       0x2a C:/devkitPro/devkitARM/bin/../lib/gcc/arm-none-eabi/15.2.0/../../../../arm-none-eabi/lib/thumb\libg.a(libc_a-strcpy.o)
 .ARM.attributes
                0x000010c8       0x2a C:/devkitPro/devkitARM/bin/../lib/gcc/arm-none-eabi/15.2.0/../../../../arm-none-eabi/lib/thumb\libg.a(libc_a-strtol.o)
 .ARM.attributes
                0x000010f2       0x2a C:/devkitPro/devkitARM/bin/../lib/gcc/arm-none-eabi/15.2.0/../../../../arm-none-eabi/lib/thumb\libg.a(libc_a-fini.o)
 .ARM.attributes
                0x0000111c       0x2a C:/devkitPro/devkitARM/bin/../lib/gcc/arm-none-eabi/15.2.0/../../../../arm-none-eabi/lib/thumb\libg.a(libc_a-sccl.o)
 .ARM.attributes
                0x00001146       0x2a C:/devkitPro/devkitARM/bin/../lib/gcc/arm-none-eabi/15.2.0/../../../../arm-none-eabi/lib/thumb\libg.a(libc_a-fflush.o)
 .ARM.attributes
                0x00001170       0x2a C:/devkitPro/devkitARM/bin/../lib/gcc/arm-none-eabi/15.2.0/../../../../arm-none-eabi/lib/thumb\libg.a(libc_a-ctype_.o)
 .ARM.attributes
                0x0000119a       0x2a C:/devkitPro/devkitARM/bin/../lib/gcc/arm-none-eabi/15.2.0/../../../../arm-none-eabi/lib/thumb\libg.a(libc_a-makebuf.o)
 .ARM.attributes
                0x000011c4       0x2a C:/devkitPro/devkitARM/bin/../lib/gcc/arm-none-eabi/15.2.0/../../../../arm-none-eabi/lib/thumb\libg.a(libc_a-getenv_r.o)
 .ARM.attributes
                0x000011ee       0x2a C:/devkitPro/devkitARM/bin/../lib/gcc/arm-none-eabi/15.2.0/../../../../arm-none-eabi/lib/thumb\libg.a(libc_a-reallocr.o)
 .ARM.attributes
                0x00001218       0x2a C:/devkitPro/devkitARM/bin/../lib/gcc/arm-none-eabi/15.2.0/../../../../arm-none-eabi/lib/thumb\libg.a(libc_a-ssputs_r.o)
 .ARM.attributes
                0x00001242       0x2a C:/devkitPro/devkitARM/bin/../lib/gcc/arm-none-eabi/15.2.0/../../../../arm-none-eabi/lib/thumb\libg.a(libc_a-strncasecmp.o)
 .ARM.attributes
                0x0000126c       0x2a C:/devkitPro/devkitARM/bin/../lib/gcc/arm-none-eabi/15.2.0/../../../../arm-none-eabi/lib/thumb\libg.a(libc_a-impure.o)
 .ARM.attributes
                0x00001296       0x1a C:/devkitPro/devkitARM/bin/../lib/gcc/arm-none-eabi/15.2.0/../../../../arm-none-eabi/lib/thumb\libg.a(libc_a-strcmp.o)
 .ARM.attributes
                0x000012b0       0x2a C:/devkitPro/devkitARM/bin/../lib/gcc/arm-none-eabi/15.2.0/../../../../arm-none-eabi/lib/thumb\libg.a(libc_a-svfscanf.o)
 .ARM.attributes
                0x000012da       0x2a C:/devkitPro/devkitARM/bin/../lib/gcc/arm-none-eabi/15.2.0/../../../../arm-none-eabi/lib/thumb\libg.a(libc_a-wctomb_r.o)
 .ARM.attributes
                0x00001304       0x2a C:/devkitPro/devkitARM/bin/../lib/gcc/arm-none-eabi/15.2.0/../../../../arm-none-eabi/lib/thumb\libg.a(libc_a-strtoull.o)
 .ARM.attributes
                0x0000132e       0x2a C:/devkitPro/devkitARM/bin/../lib/gcc/arm-none-eabi/15.2.0/../../../../arm-none-eabi/lib/thumb\libg.a(libc_a-mbrtowc.o)
 .ARM.attributes
                0x00001358       0x2a C:/devkitPro/devkitARM/bin/../lib/gcc/arm-none-eabi/15.2.0/../../../../arm-none-eabi/lib/thumb\libg.a(libc_a-wsetup.o)
 .ARM.attributes
                0x00001382       0x2a C:/devkitPro/devkitARM/bin/../lib/gcc/arm-none-eabi/15.2.0/../../../../arm-none-eabi/lib/thumb\libg.a(libm_a-sf_nan.o)
 .ARM.attributes
                0x000013ac       0x2a C:/devkitPro/devkitARM/bin/../lib/gcc/arm-none-eabi/15.2.0/../../../../arm-none-eabi/lib/thumb\libg.a(libc_a-strncmp.o)
 .ARM.attributes
                0x000013d6       0x2a C:/devkitPro/devkitARM/bin/../lib/gcc/arm-none-eabi/15.2.0/../../../../arm-none-eabi/lib/thumb\libg.a(libc_a-fvwrite.o)
 .ARM.attributes
                0x00001400       0x2a C:/devkitPro/devkitARM/bin/../lib/gcc/arm-none-eabi/15.2.0/../../../../arm-none-eabi/lib/thumb\libg.a(libc_a-envlock.o)
 .ARM.attributes
                0x0000142a       0x2a C:/devkitPro/devkitARM/bin/../lib/gcc/arm-none-eabi/15.2.0/../../../../arm-none-eabi/lib/thumb\libg.a(libc_a-assert.o)
 .ARM.attributes
                0x00001454       0x2a C:/devkitPro/devkitARM/bin/../lib/gcc/arm-none-eabi/15.2.0/../../../../arm-none-eabi/lib/thumb\libg.a(libc_a-iswspace_l.o)
 .ARM.attributes
                0x0000147e       0x2a C:/devkitPro/devkitARM/bin/../lib/gcc/arm-none-eabi/15.2.0/../../../../arm-none-eabi/lib/thumb\libg.a(libc_a-mprec.o)
 .ARM.attributes
                0x000014a8       0x2a C:/devkitPro/devkitARM/bin/../lib/gcc/arm-none-eabi/15.2.0/../../../../arm-none-eabi/lib/thumb\libg.a(libc_a-fclose.o)
 .ARM.attributes
                0x000014d2       0x2a C:/devkitPro/devkitARM/bin/../lib/gcc/arm-none-eabi/15.2.0/../../../../arm-none-eabi/lib/thumb\libg.a(libc_a-strtoll.o)
 .ARM.attributes
                0x000014fc       0x2a C:/devkitPro/devkitARM/bin/../lib/gcc/arm-none-eabi/15.2.0/../../../../arm-none-eabi/lib/thumb\libg.a(libc_a-ungetc.o)
 .ARM.attributes
                0x00001526       0x2a C:/devkitPro/devkitARM/bin/../lib/gcc/arm-none-eabi/15.2.0/../../../../arm-none-eabi/lib/thumb\libg.a(libc_a-strtod.o)
 .ARM.attributes
                0x00001550       0x2a C:/devkitPro/devkitARM/bin/../lib/gcc/arm-none-eabi/15.2.0/../../../../arm-none-eabi/lib/thumb\libg.a(libc_a-fiprintf.o)
 .ARM.attributes
                0x0000157a       0x2a C:/devkitPro/devkitARM/bin/../lib/gcc/arm-none-eabi/15.2.0/../../../../arm-none-eabi/lib/thumb\libg.a(libc_a-gdtoa-gethex.o)
 .ARM.attributes
                0x000015a4       0x2a C:/devkitPro/devkitARM/bin/../lib/gcc/arm-none-eabi/15.2.0/../../../../arm-none-eabi/lib/thumb\libg.a(libc_a-environ.o)
 .ARM.attributes
                0x000015ce       0x2a C:/devkitPro/devkitARM/bin/../lib/gcc/arm-none-eabi/15.2.0/../../../../arm-none-eabi/lib/thumb\libg.a(libc_a-abort.o)
 .ARM.attributes
                0x000015f8       0x2a C:/devkitPro/devkitARM/bin/../lib/gcc/arm-none-eabi/15.2.0/../../../../arm-none-eabi/lib/thumb\libg.a(libc_a-callocr.o)
 .ARM.attributes
                0x00001622       0x2a C:/devkitPro/devkitARM/bin/../lib/gcc/arm-none-eabi/15.2.0/../../../../arm-none-eabi/lib/thumb\libg.a(libc_a-categories.o)
 .ARM.attributes
                0x0000164c       0x2a C:/devkitPro/devkitARM/bin/../lib/gcc/arm-none-eabi/15.2.0/../../../../arm-none-eabi/lib/thumb\libg.a(libc_a-stpncpy.o)
 .ARM.attributes
                0x00001676       0x2a C:/devkitPro/devkitARM/bin/../lib/gcc/arm-none-eabi/15.2.0/../../../../arm-none-eabi/lib/thumb\libg.a(libc_a-gdtoa-hexnan.o)
 .ARM.attributes
                0x000016a0       0x2a C:/devkitPro/devkitARM/bin/../lib/gcc/arm-none-eabi/15.2.0/../../../../arm-none-eabi/lib/thumb\libg.a(libm_a-s_nan.o)
 .ARM.attributes
                0x000016ca       0x2a C:/devkitPro/devkitARM/bin/../lib/gcc/arm-none-eabi/15.2.0/../../../../arm-none-eabi/lib/thumb\libg.a(libc_a-signal.o)
 .ARM.attributes
                0x000016f4       0x2a C:/devkitPro/devkitARM/bin/../lib/gcc/arm-none-eabi/15.2.0/../../../../arm-none-eabi/lib/thumb\libsysbase.a(libsysbase_libsysbase_a-_exit.o)
 .ARM.attributes
                0x0000171e       0x2a C:/devkitPro/devkitARM/bin/../lib/gcc/arm-none-eabi/15.2.0/../../../../arm-none-eabi/lib/thumb\libsysbase.a(libsysbase_libsysbase_a-fstat.o)
 .ARM.attributes
                0x00001748       0x2a C:/devkitPro/devkitARM/bin/../lib/gcc/arm-none-eabi/15.2.0/../../../../arm-none-eabi/lib/thumb\libsysbase.a(libsysbase_libsysbase_a-getpid.o)
 .ARM.attributes
                0x00001772       0x2a C:/devkitPro/devkitARM/bin/../lib/gcc/arm-none-eabi/15.2.0/../../../../arm-none-eabi/lib/thumb\libsysbase.a(libsysbase_libsysbase_a-getreent.o)
 .ARM.attributes
                0x0000179c       0x2a C:/devkitPro/devkitARM/bin/../lib/gcc/arm-none-eabi/15.2.0/../../../../arm-none-eabi/lib/thumb\libsysbase.a(libsysbase_libsysbase_a-handle_manager.o)
 .ARM.attributes
                0x000017c6       0x2a C:/devkitPro/devkitARM/bin/../lib/gcc/arm-none-eabi/15.2.0/../../../../arm-none-eabi/lib/thumb\libsysbase.a(libsysbase_libsysbase_a-iosupport.o)
 .ARM.attributes
                0x000017f0       0x2a C:/devkitPro/devkitARM/bin/../lib/gcc/arm-none-eabi/15.2.0/../../../../arm-none-eabi/lib/thumb\libsysbase.a(libsysbase_libsysbase_a-isatty.o)
 .ARM.attributes
                0x0000181a       0x2a C:/devkitPro/devkitARM/bin/../lib/gcc/arm-none-eabi/15.2.0/../../../../arm-none-eabi/lib/thumb\libsysbase.a(libsysbase_libsysbase_a-kill.o)
 .ARM.attributes
                0x00001844       0x2a C:/devkitPro/devkitARM/bin/../lib/gcc/arm-none-eabi/15.2.0/../../../../arm-none-eabi/lib/thumb\libsysbase.a(libsysbase_libsysbase_a-lseek.o)
 .ARM.attributes
                0x0000186e       0x2a C:/devkitPro/devkitARM/bin/../lib/gcc/arm-none-eabi/15.2.0/../../../../arm-none-eabi/lib/thumb\libsysbase.a(libsysbase_libsysbase_a-malloc_vars.o)
 .ARM.attributes
                0x00001898       0x2a C:/devkitPro/devkitARM/bin/../lib/gcc/arm-none-eabi/15.2.0/../../../../arm-none-eabi/lib/thumb\libsysbase.a(libsysbase_libsysbase_a-read.o)
 .ARM.attributes
                0x000018c2       0x2a C:/devkitPro/devkitARM/bin/../lib/gcc/arm-none-eabi/15.2.0/../../../../arm-none-eabi/lib/thumb\libsysbase.a(libsysbase_libsysbase_a-sbrk.o)
 .ARM.attributes
                0x000018ec       0x2a C:/devkitPro/devkitARM/bin/../lib/gcc/arm-none-eabi/15.2.0/../../../../arm-none-eabi/lib/thumb\libsysbase.a(libsysbase_libsysbase_a-syscall_support.o)
 .ARM.attributes
                0x00001916       0x2a C:/devkitPro/devkitARM/bin/../lib/gcc/arm-none-eabi/15.2.0/../../../../arm-none-eabi/lib/thumb\libsysbase.a(libsysbase_libsysbase_a-write.o)
 .ARM.attributes
                0x00001940       0x2a C:/devkitPro/devkitARM/bin/../lib/gcc/arm-none-eabi/15.2.0/../../../../arm-none-eabi/lib/thumb\libsysbase.a(libsysbase_libsysbase_a-clocks.o)
 .ARM.attributes
                0x0000196a       0x1c C:/devkitPro/devkitARM/bin/../lib/gcc/arm-none-eabi/15.2.0/thumb\libgcc.a(_thumb1_case_uqi.o)
 .ARM.attributes
                0x00001986       0x1c C:/devkitPro/devkitARM/bin/../lib/gcc/arm-none-eabi/15.2.0/thumb\libgcc.a(_thumb1_case_uhi.o)
 .ARM.attributes
                0x000019a2       0x1c C:/devkitPro/devkitARM/bin/../lib/gcc/arm-none-eabi/15.2.0/thumb\libgcc.a(_arm_muldf3.o)
 .ARM.attributes
                0x000019be       0x1c C:/devkitPro/devkitARM/bin/../lib/gcc/arm-none-eabi/15.2.0/thumb\libgcc.a(_udivsi3.o)
 .ARM.attributes
                0x000019da       0x1c C:/devkitPro/devkitARM/bin/../lib/gcc/arm-none-eabi/15.2.0/thumb\libgcc.a(_arm_addsubdf3.o)
 .ARM.attributes
                0x000019f6       0x1c C:/devkitPro/devkitARM/bin/../lib/gcc/arm-none-eabi/15.2.0/thumb\libgcc.a(_arm_muldivdf3.o)
 .ARM.attributes
                0x00001a12       0x1c C:/devkitPro/devkitARM/bin/../lib/gcc/arm-none-eabi/15.2.0/thumb\libgcc.a(_arm_cmpdf2.o)
 .ARM.attributes
                0x00001a2e       0x1c C:/devkitPro/devkitARM/bin/../lib/gcc/arm-none-eabi/15.2.0/thumb\libgcc.a(_arm_unorddf2.o)
 .ARM.attributes
                0x00001a4a       0x1c C:/devkitPro/devkitARM/bin/../lib/gcc/arm-none-eabi/15.2.0/thumb\libgcc.a(_arm_fixdfsi.o)
 .ARM.attributes
                0x00001a66       0x1c C:/devkitPro/devkitARM/bin/../lib/gcc/arm-none-eabi/15.2.0/thumb\libgcc.a(_arm_fixunsdfsi.o)
 .ARM.attributes
                0x00001a82       0x1c C:/devkitPro/devkitARM/bin/../lib/gcc/arm-none-eabi/15.2.0/thumb\libgcc.a(_arm_truncdfsf2.o)
 .ARM.attributes
                0x00001a9e       0x1c C:/devkitPro/devkitARM/bin/../lib/gcc/arm-none-eabi/15.2.0/thumb\libgcc.a(_arm_unordsf2.o)
 .ARM.attributes
                0x00001aba       0x2a C:/devkitPro/devkitARM/bin/../lib/gcc/arm-none-eabi/15.2.0/thumb\libgcc.a(_muldi3.o)
 .ARM.attributes
                0x00001ae4       0x2a C:/devkitPro/devkitARM/bin/../lib/gcc/arm-none-eabi/15.2.0/thumb\libgcc.a(_fixdfdi.o)
 .ARM.attributes
                0x00001b0e       0x2a C:/devkitPro/devkitARM/bin/../lib/gcc/arm-none-eabi/15.2.0/thumb\libgcc.a(_fixunsdfdi.o)
 .ARM.attributes
                0x00001b38       0x2a C:/devkitPro/devkitARM/bin/../lib/gcc/arm-none-eabi/15.2.0/thumb/crtend.o
 .ARM.attributes
                0x00001b62       0x1c C:/devkitPro/devkitARM/bin/../lib/gcc/arm-none-eabi/15.2.0/thumb/crtn.o
 *(.gnu.attributes)

.note.gnu.arm.ident
 *(.note.gnu.arm.ident)

/DISCARD/
 *(.note.GNU-stack)
 *(.gnu_debuglink)
 *(.gnu.lto_*)
 *(.stack)
OUTPUT(C:/Users/tello/OneDrive/Documentos/GitHub/nds-temps-viewer/temps-viewer.elf elf32-littlearm)
LOAD linker stubs

.debug_loclists
                0x00000000     0xe478
 .debug_loclists
                0x00000000      0x3f8 main.o
 .debug_loclists
                0x000003f8       0xa8 C:/devkitPro/libnds/lib\libdswifi9.a(dswifi9.o)
 .debug_loclists
                0x000004a0      0x637 C:/devkitPro/libnds/lib\libdswifi9.a(sgIP_DHCP.o)
 .debug_loclists
                0x00000ad7      0xb4c C:/devkitPro/libnds/lib\libdswifi9.a(sgIP_DNS.o)
 .debug_loclists
                0x00001623     0x16ba C:/devkitPro/libnds/lib\libdswifi9.a(sgIP_sockets.o)
 .debug_loclists
                0x00002cdd      0xb41 C:/devkitPro/libnds/lib\libdswifi9.a(wfc.o)
 .debug_loclists
                0x0000381e       0x31 C:/devkitPro/libnds/lib\libdswifi9.a(sgIP.o)
 .debug_loclists
                0x0000384f      0x4f5 C:/devkitPro/libnds/lib\libdswifi9.a(sgIP_memblock.o)
 .debug_loclists
                0x00003d44      0x449 C:/devkitPro/libnds/lib\libdswifi9.a(sgIP_Hub.o)
 .debug_loclists
                0x0000418d      0x241 C:/devkitPro/libnds/lib\libdswifi9.a(sgIP_IP.o)
 .debug_loclists
                0x000043ce      0x84c C:/devkitPro/libnds/lib\libdswifi9.a(sgIP_ARP.o)
 .debug_loclists
                0x00004c1a      0x107 C:/devkitPro/libnds/lib\libdswifi9.a(sgIP_ICMP.o)
 .debug_loclists
                0x00004d21     0x1b83 C:/devkitPro/libnds/lib\libdswifi9.a(sgIP_TCP.o)
 .debug_loclists
                0x000068a4      0x859 C:/devkitPro/libnds/lib\libdswifi9.a(sgIP_UDP.o)
 .debug_loclists
                0x000070fd     0x10e4 C:/devkitPro/libnds/lib\libnds9.a(console.o)
 .debug_loclists
                0x000081e1       0xa4 C:/devkitPro/libnds/lib\libnds9.a(keys.o)
 .debug_loclists
                0x00008285      0x2fa C:/devkitPro/libnds/lib\libnds9.a(background.o)
 .debug_loclists
                0x0000857f      0x87e C:/devkitPro/libnds/lib\libnds9.a(trig.o)
 .debug_loclists
                0x00008dfd       0xb0 C:/devkitPro/calico/lib\libcalico_ds9.a(irq.o)
 .debug_loclists
                0x00008ead      0x53d C:/devkitPro/calico/lib\libcalico_ds9.a(tick.o)
 .debug_loclists
                0x000093ea      0xa81 C:/devkitPro/calico/lib\libcalico_ds9.a(thread_cold.o)
 .debug_loclists
                0x00009e6b     0x1014 C:/devkitPro/calico/lib\libcalico_ds9.a(thread_hot.32.o)
 .debug_loclists
                0x0000ae7f      0x936 C:/devkitPro/calico/lib\libcalico_ds9.a(mutex.o)
 .debug_loclists
                0x0000b7b5      0x31c C:/devkitPro/calico/lib\libcalico_ds9.a(mailbox.o)
 .debug_loclists
                0x0000bad1      0x472 C:/devkitPro/calico/lib\libcalico_ds9.a(newlib_syscalls.o)
 .debug_loclists
                0x0000bf43       0xd8 C:/devkitPro/calico/lib\libcalico_ds9.a(arm-shims.32.o)
 .debug_loclists
                0x0000c01b      0x10d C:/devkitPro/calico/lib\libcalico_ds9.a(startup.crt0.o)
 .debug_loclists
                0x0000c128      0x735 C:/devkitPro/calico/lib\libcalico_ds9.a(pxi.o)
 .debug_loclists
                0x0000c85d      0x3f1 C:/devkitPro/calico/lib\libcalico_ds9.a(netbuf.o)
 .debug_loclists
                0x0000cc4e       0xea C:/devkitPro/calico/lib\libcalico_ds9.a(sys_startup.o)
 .debug_loclists
                0x0000cd38      0x39f C:/devkitPro/calico/lib\libcalico_ds9.a(pm_arm9.o)
 .debug_loclists
                0x0000d0d7       0xac C:/devkitPro/calico/lib\libcalico_ds9.a(touch.o)
 .debug_loclists
                0x0000d183      0x64d C:/devkitPro/calico/lib\libcalico_ds9.a(wlmgr.o)
 .debug_loclists
                0x0000d7d0      0x320 C:/devkitPro/calico/lib\libcalico_ds9.a(smutex.32.o)
 .debug_loclists
                0x0000daf0      0x499 C:/devkitPro/calico/lib\libcalico_ds9.a(pm.o)
 .debug_loclists
                0x0000df89      0x2a9 C:/devkitPro/devkitARM/bin/../lib/gcc/arm-none-eabi/15.2.0/thumb\libgcc.a(_udivmoddi4.o)
 .debug_loclists
                0x0000e232      0x193 C:/devkitPro/devkitARM/bin/../lib/gcc/arm-none-eabi/15.2.0/thumb\libgcc.a(_muldi3.o)
 .debug_loclists
                0x0000e3c5       0x2a C:/devkitPro/devkitARM/bin/../lib/gcc/arm-none-eabi/15.2.0/thumb\libgcc.a(_fixdfdi.o)
 .debug_loclists
                0x0000e3ef       0x89 C:/devkitPro/devkitARM/bin/../lib/gcc/arm-none-eabi/15.2.0/thumb\libgcc.a(_fixunsdfdi.o)

.debug_rnglists
                0x00000000     0x2d77
 .debug_rnglists
                0x00000000       0x89 main.o
 .debug_rnglists
                0x00000089       0x58 C:/devkitPro/libnds/lib\libdswifi9.a(dswifi9.o)
 .debug_rnglists
                0x000000e1       0xcf C:/devkitPro/libnds/lib\libdswifi9.a(sgIP_DHCP.o)
 .debug_rnglists
                0x000001b0      0x206 C:/devkitPro/libnds/lib\libdswifi9.a(sgIP_DNS.o)
 .debug_rnglists
                0x000003b6      0x642 C:/devkitPro/libnds/lib\libdswifi9.a(sgIP_sockets.o)
 .debug_rnglists
                0x000009f8      0x2f6 C:/devkitPro/libnds/lib\libdswifi9.a(wfc.o)
 .debug_rnglists
                0x00000cee       0x1a C:/devkitPro/libnds/lib\libdswifi9.a(sgIP.o)
 .debug_rnglists
                0x00000d08       0x9a C:/devkitPro/libnds/lib\libdswifi9.a(sgIP_memblock.o)
 .debug_rnglists
                0x00000da2       0x5f C:/devkitPro/libnds/lib\libdswifi9.a(sgIP_Hub.o)
 .debug_rnglists
                0x00000e01       0x48 C:/devkitPro/libnds/lib\libdswifi9.a(sgIP_IP.o)
 .debug_rnglists
                0x00000e49       0x7b C:/devkitPro/libnds/lib\libdswifi9.a(sgIP_ARP.o)
 .debug_rnglists
                0x00000ec4       0x1a C:/devkitPro/libnds/lib\libdswifi9.a(sgIP_ICMP.o)
 .debug_rnglists
                0x00000ede      0x44e C:/devkitPro/libnds/lib\libdswifi9.a(sgIP_TCP.o)
 .debug_rnglists
                0x0000132c      0x1c2 C:/devkitPro/libnds/lib\libdswifi9.a(sgIP_UDP.o)
 .debug_rnglists
                0x000014ee      0x22f C:/devkitPro/libnds/lib\libnds9.a(console.o)
 .debug_rnglists
                0x0000171d       0x67 C:/devkitPro/libnds/lib\libnds9.a(keys.o)
 .debug_rnglists
                0x00001784       0x61 C:/devkitPro/libnds/lib\libnds9.a(background.o)
 .debug_rnglists
                0x000017e5       0x9c C:/devkitPro/libnds/lib\libnds9.a(trig.o)
 .debug_rnglists
                0x00001881       0x3a C:/devkitPro/calico/lib\libcalico_ds9.a(irq.o)
 .debug_rnglists
                0x000018bb      0x1ae C:/devkitPro/calico/lib\libcalico_ds9.a(tick.o)
 .debug_rnglists
                0x00001a69      0x2db C:/devkitPro/calico/lib\libcalico_ds9.a(thread_cold.o)
 .debug_rnglists
                0x00001d44      0x339 C:/devkitPro/calico/lib\libcalico_ds9.a(thread_hot.32.o)
 .debug_rnglists
                0x0000207d      0x220 C:/devkitPro/calico/lib\libcalico_ds9.a(mutex.o)
 .debug_rnglists
                0x0000229d       0xc4 C:/devkitPro/calico/lib\libcalico_ds9.a(mailbox.o)
 .debug_rnglists
                0x00002361       0xe9 C:/devkitPro/calico/lib\libcalico_ds9.a(newlib_syscalls.o)
 .debug_rnglists
                0x0000244a       0x19 C:/devkitPro/calico/lib\libcalico_ds9.a(arm-copy-fill.32.o)
 .debug_rnglists
                0x00002463       0x19 C:/devkitPro/calico/lib\libcalico_ds9.a(arm-context.32.o)
 .debug_rnglists
                0x0000247c       0x67 C:/devkitPro/calico/lib\libcalico_ds9.a(arm-shims.32.o)
 .debug_rnglists
                0x000024e3       0x41 C:/devkitPro/calico/lib\libcalico_ds9.a(startup.crt0.o)
 .debug_rnglists
                0x00002524       0x19 C:/devkitPro/calico/lib\libcalico_ds9.a(utils.crt0.o)
 .debug_rnglists
                0x0000253d       0x67 C:/devkitPro/calico/lib\libcalico_ds9.a(bios.o)
 .debug_rnglists
                0x000025a4      0x1a6 C:/devkitPro/calico/lib\libcalico_ds9.a(pxi.o)
 .debug_rnglists
                0x0000274a       0x22 C:/devkitPro/calico/lib\libcalico_ds9.a(keypad.o)
 .debug_rnglists
                0x0000276c       0xc6 C:/devkitPro/calico/lib\libcalico_ds9.a(netbuf.o)
 .debug_rnglists
                0x00002832       0x26 C:/devkitPro/calico/lib\libcalico_ds9.a(bootstub_arm9.o)
 .debug_rnglists
                0x00002858       0x59 C:/devkitPro/calico/lib\libcalico_ds9.a(sys_startup.o)
 .debug_rnglists
                0x000028b1       0x55 C:/devkitPro/calico/lib\libcalico_ds9.a(pm_arm9.o)
 .debug_rnglists
                0x00002906       0x1f C:/devkitPro/calico/lib\libcalico_ds9.a(touch.o)
 .debug_rnglists
                0x00002925      0x16b C:/devkitPro/calico/lib\libcalico_ds9.a(wlmgr.o)
 .debug_rnglists
                0x00002a90       0x31 C:/devkitPro/calico/lib\libcalico_ds9.a(arm-cache.32.o)
 .debug_rnglists
                0x00002ac1       0xbb C:/devkitPro/calico/lib\libcalico_ds9.a(smutex.32.o)
 .debug_rnglists
                0x00002b7c      0x193 C:/devkitPro/calico/lib\libcalico_ds9.a(pm.o)
 .debug_rnglists
                0x00002d0f       0x14 C:/devkitPro/devkitARM/bin/../lib/gcc/arm-none-eabi/15.2.0/thumb\libgcc.a(_udivmoddi4.o)
 .debug_rnglists
                0x00002d23       0x2e C:/devkitPro/devkitARM/bin/../lib/gcc/arm-none-eabi/15.2.0/thumb\libgcc.a(_muldi3.o)
 .debug_rnglists
                0x00002d51       0x13 C:/devkitPro/devkitARM/bin/../lib/gcc/arm-none-eabi/15.2.0/thumb\libgcc.a(_fixdfdi.o)
 .debug_rnglists
                0x00002d64       0x13 C:/devkitPro/devkitARM/bin/../lib/gcc/arm-none-eabi/15.2.0/thumb\libgcc.a(_fixunsdfdi.o)

.debug_line_str
                0x00000000      0x21e
 .debug_line_str
                0x00000000      0x21e C:/devkitPro/calico/lib\libcalico_ds9.a(arm-copy-fill.32.o)
                                 0x84 (size before relaxing)
 .debug_line_str
                0x0000021e        0x0 C:/devkitPro/calico/lib\libcalico_ds9.a(arm-context.32.o)
                                 0x82 (size before relaxing)
 .debug_line_str
                0x0000021e        0x0 C:/devkitPro/calico/lib\libcalico_ds9.a(utils.crt0.o)
                                 0x8b (size before relaxing)
 .debug_line_str
                0x0000021e        0x0 C:/devkitPro/calico/lib\libcalico_ds9.a(bios.o)
                                 0x78 (size before relaxing)
 .debug_line_str
                0x0000021e        0x0 C:/devkitPro/calico/lib\libcalico_ds9.a(bootstub_arm9.o)
                                 0x86 (size before relaxing)
 .debug_line_str
                0x0000021e        0x0 C:/devkitPro/calico/lib\libcalico_ds9.a(mpu_setup.crt0.o)
                                 0x87 (size before relaxing)
 .debug_line_str
                0x0000021e        0x0 C:/devkitPro/calico/lib\libcalico_ds9.a(excpt_handler.32.o)
                                 0x89 (size before relaxing)
 .debug_line_str
                0x0000021e        0x0 C:/devkitPro/calico/lib\libcalico_ds9.a(arm-cache.32.o)
                                 0x80 (size before relaxing)
 .debug_line_str
                0x0000021e        0x0 C:/devkitPro/calico/lib\libcalico_ds9.a(irq_handler.32.o)
                                 0x82 (size before relaxing)
 .debug_line_str
                0x0000021e        0x0 C:/devkitPro/devkitARM/bin/../lib/gcc/arm-none-eabi/15.2.0/thumb\libgcc.a(_divsi3.o)
                                 0xcd (size before relaxing)
 .debug_line_str
                0x0000021e        0x0 C:/devkitPro/devkitARM/bin/../lib/gcc/arm-none-eabi/15.2.0/thumb\libgcc.a(_dvmd_tls.o)
                                 0xcd (size before relaxing)
 .debug_line_str
                0x0000021e        0x0 C:/devkitPro/devkitARM/bin/../lib/gcc/arm-none-eabi/15.2.0/thumb\libgcc.a(_arm_cmpsf2.o)
                                 0xce (size before relaxing)
 .debug_line_str
                0x0000021e        0x0 C:/devkitPro/devkitARM/bin/../lib/gcc/arm-none-eabi/15.2.0/thumb\libgcc.a(_aeabi_uldivmod.o)
                                 0xc9 (size before relaxing)
 .debug_line_str
                0x0000021e        0x0 C:/devkitPro/devkitARM/bin/../lib/gcc/arm-none-eabi/15.2.0/thumb\libgcc.a(_clzdi2.o)
                                 0xcd (size before relaxing)
 .debug_line_str
                0x0000021e        0x0 C:/devkitPro/devkitARM/bin/../lib/gcc/arm-none-eabi/15.2.0/thumb\libgcc.a(_clzsi2.o)
                                 0xcd (size before relaxing)
 .debug_line_str
                0x0000021e        0x0 C:/devkitPro/devkitARM/bin/../lib/gcc/arm-none-eabi/15.2.0/thumb\libgcc.a(_thumb1_case_uqi.o)
                                 0xcd (size before relaxing)
 .debug_line_str
                0x0000021e        0x0 C:/devkitPro/devkitARM/bin/../lib/gcc/arm-none-eabi/15.2.0/thumb\libgcc.a(_thumb1_case_uhi.o)
                                 0xcd (size before relaxing)
 .debug_line_str
                0x0000021e        0x0 C:/devkitPro/devkitARM/bin/../lib/gcc/arm-none-eabi/15.2.0/thumb\libgcc.a(_udivsi3.o)
                                 0xcd (size before relaxing)
 .debug_line_str
                0x0000021e        0x0 C:/devkitPro/devkitARM/bin/../lib/gcc/arm-none-eabi/15.2.0/thumb\libgcc.a(_arm_addsubdf3.o)
                                 0xce (size before relaxing)
 .debug_line_str
                0x0000021e        0x0 C:/devkitPro/devkitARM/bin/../lib/gcc/arm-none-eabi/15.2.0/thumb\libgcc.a(_arm_muldivdf3.o)
                                 0xce (size before relaxing)
 .debug_line_str
                0x0000021e        0x0 C:/devkitPro/devkitARM/bin/../lib/gcc/arm-none-eabi/15.2.0/thumb\libgcc.a(_arm_cmpdf2.o)
                                 0xce (size before relaxing)
 .debug_line_str
                0x0000021e        0x0 C:/devkitPro/devkitARM/bin/../lib/gcc/arm-none-eabi/15.2.0/thumb\libgcc.a(_arm_unorddf2.o)
                                 0xce (size before relaxing)
 .debug_line_str
                0x0000021e        0x0 C:/devkitPro/devkitARM/bin/../lib/gcc/arm-none-eabi/15.2.0/thumb\libgcc.a(_arm_fixdfsi.o)
                                 0xce (size before relaxing)
 .debug_line_str
                0x0000021e        0x0 C:/devkitPro/devkitARM/bin/../lib/gcc/arm-none-eabi/15.2.0/thumb\libgcc.a(_arm_fixunsdfsi.o)
                                 0xce (size before relaxing)
 .debug_line_str
                0x0000021e        0x0 C:/devkitPro/devkitARM/bin/../lib/gcc/arm-none-eabi/15.2.0/thumb\libgcc.a(_arm_truncdfsf2.o)
                                 0xce (size before relaxing)
